# SymbolsHelper-Confirmed: 1.2.0 amd64
libQt5GStreamerUtils-1.0.so.0 libqt5gstreamerutils-1.0-0 #MINVER#
 _ZN4QGst5Utils15ApplicationSink10enableDropEb@Base 1.2.0
 _ZN4QGst5Utils15ApplicationSink10newPrerollEv@Base 1.2.0
 _ZN4QGst5Utils15ApplicationSink10pullSampleEv@Base 1.2.0
 _ZN4QGst5Utils15ApplicationSink10setElementERKN5QGlib10RefPointerINS_7ElementEEE@Base 1.2.0
 _ZN4QGst5Utils15ApplicationSink11pullPrerollEv@Base 1.2.0
 _ZN4QGst5Utils15ApplicationSink13setMaxBuffersEj@Base 1.2.0
 _ZN4QGst5Utils15ApplicationSink3eosEv@Base 1.2.0
 _ZN4QGst5Utils15ApplicationSink7setCapsERKN5QGlib10RefPointerINS_4CapsEEE@Base 1.2.0
 _ZN4QGst5Utils15ApplicationSink9newSampleEv@Base 1.2.0
 _ZN4QGst5Utils15ApplicationSinkC1Ev@Base 1.2.0
 _ZN4QGst5Utils15ApplicationSinkC2Ev@Base 1.2.0
 _ZN4QGst5Utils15ApplicationSinkD0Ev@Base 1.2.0
 _ZN4QGst5Utils15ApplicationSinkD1Ev@Base 1.2.0
 _ZN4QGst5Utils15ApplicationSinkD2Ev@Base 1.2.0
 _ZN4QGst5Utils17ApplicationSource10enoughDataEv@Base 1.2.0
 _ZN4QGst5Utils17ApplicationSource10pushBufferERKN5QGlib10RefPointerINS_6BufferEEE@Base 1.2.0
 _ZN4QGst5Utils17ApplicationSource10setElementERKN5QGlib10RefPointerINS_7ElementEEE@Base 1.2.0
 _ZN4QGst5Utils17ApplicationSource10setLatencyEyy@Base 1.2.0
 _ZN4QGst5Utils17ApplicationSource11enableBlockEb@Base 1.2.0
 _ZN4QGst5Utils17ApplicationSource11endOfStreamEv@Base 1.2.0
 _ZN4QGst5Utils17ApplicationSource11setMaxBytesEy@Base 1.2.0
 _ZN4QGst5Utils17ApplicationSource13setMinPercentEj@Base 1.2.0
 _ZN4QGst5Utils17ApplicationSource13setStreamTypeENS_13AppStreamTypeE@Base 1.2.0
 _ZN4QGst5Utils17ApplicationSource7setCapsERKN5QGlib10RefPointerINS_4CapsEEE@Base 1.2.0
 _ZN4QGst5Utils17ApplicationSource7setLiveEb@Base 1.2.0
 _ZN4QGst5Utils17ApplicationSource7setSizeEx@Base 1.2.0
 _ZN4QGst5Utils17ApplicationSource8needDataEj@Base 1.2.0
 _ZN4QGst5Utils17ApplicationSource8seekDataEy@Base 1.2.0
 _ZN4QGst5Utils17ApplicationSource9setFormatENS_6FormatE@Base 1.2.0
 _ZN4QGst5Utils17ApplicationSourceC1Ev@Base 1.2.0
 _ZN4QGst5Utils17ApplicationSourceC2Ev@Base 1.2.0
 _ZN4QGst5Utils17ApplicationSourceD0Ev@Base 1.2.0
 _ZN4QGst5Utils17ApplicationSourceD1Ev@Base 1.2.0
 _ZN4QGst5Utils17ApplicationSourceD2Ev@Base 1.2.0
 (optional=templinst)_ZN5QGlib10ObjectBase11setPropertyIN4QGst6FormatEEEvPKcRKT_@Base 1.2.0
 (optional=templinst)_ZN5QGlib10ObjectBase11setPropertyIbEEvPKcRKT_@Base 1.2.0
 (optional=templinst)_ZN5QGlib10ObjectBase11setPropertyIjEEvPKcRKT_@Base 1.2.0
 (optional=templinst)_ZN5QGlib5Value3setIN4QGst6FormatEEEvRKT_@Base 1.2.0
 (optional=templinst)_ZN5QGlib5Value3setIbEEvRKT_@Base 1.2.0
 (optional=templinst)_ZN5QGlib5Value3setIjEEvRKT_@Base 1.2.0
 _ZNK4QGst5Utils15ApplicationSink10maxBuffersEv@Base 1.2.0
 _ZNK4QGst5Utils15ApplicationSink11dropEnabledEv@Base 1.2.0
 _ZNK4QGst5Utils15ApplicationSink4capsEv@Base 1.2.0
 _ZNK4QGst5Utils15ApplicationSink5isEosEv@Base 1.2.0
 _ZNK4QGst5Utils15ApplicationSink7elementEv@Base 1.2.0
 _ZNK4QGst5Utils17ApplicationSource10maxLatencyEv@Base 1.2.0
 _ZNK4QGst5Utils17ApplicationSource10minLatencyEv@Base 1.2.0
 _ZNK4QGst5Utils17ApplicationSource10minPercentEv@Base 1.2.0
 _ZNK4QGst5Utils17ApplicationSource10streamTypeEv@Base 1.2.0
 _ZNK4QGst5Utils17ApplicationSource12blockEnabledEv@Base 1.2.0
 _ZNK4QGst5Utils17ApplicationSource4capsEv@Base 1.2.0
 _ZNK4QGst5Utils17ApplicationSource4sizeEv@Base 1.2.0
 _ZNK4QGst5Utils17ApplicationSource6formatEv@Base 1.2.0
 _ZNK4QGst5Utils17ApplicationSource6isLiveEv@Base 1.2.0
 _ZNK4QGst5Utils17ApplicationSource7elementEv@Base 1.2.0
 _ZNK4QGst5Utils17ApplicationSource8maxBytesEv@Base 1.2.0
 (optional=templinst)_ZNK5QGlib5Value3getIbEET_Pb@Base 1.2.0
 _ZTIN4QGst4CapsE@Base 1.2.0
 _ZTIN4QGst5Utils15ApplicationSinkE@Base 1.2.0
 _ZTIN4QGst5Utils17ApplicationSourceE@Base 1.2.0
 _ZTIN4QGst6SampleE@Base 1.2.0
 _ZTIN5QGlib16RefCountedObjectE@Base 1.2.0
 _ZTSN4QGst4CapsE@Base 1.2.0
 _ZTSN4QGst5Utils15ApplicationSinkE@Base 1.2.0
 _ZTSN4QGst5Utils17ApplicationSourceE@Base 1.2.0
 _ZTSN4QGst6SampleE@Base 1.2.0
 _ZTSN5QGlib16RefCountedObjectE@Base 1.2.0
 _ZTVN4QGst5Utils15ApplicationSinkE@Base 1.2.0
 _ZTVN4QGst5Utils17ApplicationSourceE@Base 1.2.0
