# SymbolsHelper-Confirmed: 1.2.0 amd64
libQt5GStreamerUi-1.0.so.0 libqt5gstreamerui-1.0-0 #MINVER#
 _ZN4QGst2Ui11VideoWidget10paintEventEP11QPaintEvent@Base 1.2.0
 _ZN4QGst2Ui11VideoWidget11qt_metacallEN11QMetaObject4CallEiPPv@Base 1.2.0
 _ZN4QGst2Ui11VideoWidget11qt_metacastEPKc@Base 1.2.0
 _ZN4QGst2Ui11VideoWidget12setVideoSinkERKN5QGlib10RefPointerINS_7ElementEEE@Base 1.2.0
 _ZN4QGst2Ui11VideoWidget13watchPipelineERKN5QGlib10RefPointerINS_8PipelineEEE@Base 1.2.0
 _ZN4QGst2Ui11VideoWidget16releaseVideoSinkEv@Base 1.2.0
 _ZN4QGst2Ui11VideoWidget16staticMetaObjectE@Base 1.2.0
 _ZN4QGst2Ui11VideoWidget17stopPipelineWatchEv@Base 1.2.0
 _ZN4QGst2Ui11VideoWidgetC1EP7QWidget6QFlagsIN2Qt10WindowTypeEE@Base 1.2.0
 _ZN4QGst2Ui11VideoWidgetC2EP7QWidget6QFlagsIN2Qt10WindowTypeEE@Base 1.2.0
 _ZN4QGst2Ui11VideoWidgetD0Ev@Base 1.2.0
 _ZN4QGst2Ui11VideoWidgetD1Ev@Base 1.2.0
 _ZN4QGst2Ui11VideoWidgetD2Ev@Base 1.2.0
 _ZN4QGst2Ui19GraphicsVideoWidget10setSurfaceEPNS0_20GraphicsVideoSurfaceE@Base 1.2.0
 _ZN4QGst2Ui19GraphicsVideoWidget11qt_metacallEN11QMetaObject4CallEiPPv@Base 1.2.0
 _ZN4QGst2Ui19GraphicsVideoWidget11qt_metacastEPKc@Base 1.2.0
 _ZN4QGst2Ui19GraphicsVideoWidget16staticMetaObjectE@Base 1.2.0
 _ZN4QGst2Ui19GraphicsVideoWidget5paintEP8QPainterPK24QStyleOptionGraphicsItemP7QWidget@Base 1.2.0
 _ZN4QGst2Ui19GraphicsVideoWidgetC1EP13QGraphicsItem6QFlagsIN2Qt10WindowTypeEE@Base 1.2.0
 _ZN4QGst2Ui19GraphicsVideoWidgetC2EP13QGraphicsItem6QFlagsIN2Qt10WindowTypeEE@Base 1.2.0
 _ZN4QGst2Ui19GraphicsVideoWidgetD0Ev@Base 1.2.0
 _ZN4QGst2Ui19GraphicsVideoWidgetD1Ev@Base 1.2.0
 _ZN4QGst2Ui19GraphicsVideoWidgetD2Ev@Base 1.2.0
 _ZN4QGst2Ui20GraphicsVideoSurface11qt_metacallEN11QMetaObject4CallEiPPv@Base 1.2.0
 _ZN4QGst2Ui20GraphicsVideoSurface11qt_metacastEPKc@Base 1.2.0
 _ZN4QGst2Ui20GraphicsVideoSurface16staticMetaObjectE@Base 1.2.0
 _ZN4QGst2Ui20GraphicsVideoSurfaceC1EP13QGraphicsView@Base 1.2.0
 _ZN4QGst2Ui20GraphicsVideoSurfaceC2EP13QGraphicsView@Base 1.2.0
 _ZN4QGst2Ui20GraphicsVideoSurfaceD0Ev@Base 1.2.0
 _ZN4QGst2Ui20GraphicsVideoSurfaceD1Ev@Base 1.2.0
 _ZN4QGst2Ui20GraphicsVideoSurfaceD2Ev@Base 1.2.0
 (optional=templinst)_ZN5QGlib10ObjectBase11setPropertyIPvEEvPKcRKT_@Base 1.2.0
 (optional=templinst)_ZN5QGlib5Value3setIPvEEvRKT_@Base 1.2.0
 _ZNK4QGst2Ui11VideoWidget10metaObjectEv@Base 1.2.0
 _ZNK4QGst2Ui11VideoWidget9videoSinkEv@Base 1.2.0
 _ZNK4QGst2Ui19GraphicsVideoWidget10metaObjectEv@Base 1.2.0
 _ZNK4QGst2Ui19GraphicsVideoWidget7surfaceEv@Base 1.2.0
 _ZNK4QGst2Ui20GraphicsVideoSurface10metaObjectEv@Base 1.2.0
 _ZNK4QGst2Ui20GraphicsVideoSurface9videoSinkEv@Base 1.2.0
 _ZTIN4QGst12VideoOverlayE@Base 1.2.0
 _ZTIN4QGst2Ui11VideoWidgetE@Base 1.2.0
 _ZTIN4QGst2Ui19GraphicsVideoWidgetE@Base 1.2.0
 _ZTIN4QGst2Ui20GraphicsVideoSurfaceE@Base 1.2.0
 _ZTIN4QGst7ElementE@Base 1.2.0
 _ZTIN4QGst7MessageE@Base 1.2.0
 _ZTIN5QGlib16RefCountedObjectE@Base 1.2.0
 _ZTIN5QGlib7Private15ClosureDataBaseE@Base 1.2.0
 _ZTIN5QGlib9InterfaceE@Base 1.2.0
 _ZTSN4QGst12VideoOverlayE@Base 1.2.0
 _ZTSN4QGst2Ui11VideoWidgetE@Base 1.2.0
 _ZTSN4QGst2Ui19GraphicsVideoWidgetE@Base 1.2.0
 _ZTSN4QGst2Ui20GraphicsVideoSurfaceE@Base 1.2.0
 _ZTSN4QGst7ElementE@Base 1.2.0
 _ZTSN4QGst7MessageE@Base 1.2.0
 _ZTSN5QGlib16RefCountedObjectE@Base 1.2.0
 _ZTSN5QGlib7Private15ClosureDataBaseE@Base 1.2.0
 _ZTSN5QGlib9InterfaceE@Base 1.2.0
 _ZTVN4QGst2Ui11VideoWidgetE@Base 1.2.0
 _ZTVN4QGst2Ui19GraphicsVideoWidgetE@Base 1.2.0
 _ZTVN4QGst2Ui20GraphicsVideoSurfaceE@Base 1.2.0
 _ZTVN5QGlib7Private15ClosureDataBaseE@Base 1.2.0
 (c++)"non-virtual thunk to QGst::Ui::GraphicsVideoWidget::paint(QPainter*, QStyleOptionGraphicsItem const*, QWidget*)@Base" 1.2.0
 (c++)"non-virtual thunk to QGst::Ui::GraphicsVideoWidget::~GraphicsVideoWidget()@Base" 1.2.0
 (c++)"non-virtual thunk to QGst::Ui::VideoWidget::~VideoWidget()@Base" 1.2.0
