# SymbolsHelper-Confirmed: 1.2.0 amd64 i386
libQt5GStreamer-1.0.so.0 libqt5gstreamer-1.0-0 #MINVER#
 _ZN4QGst10BufferList6createEv@Base 1.2.0
 _ZN4QGst10Discoverer11discoverUriEPKc@Base 1.2.0
 _ZN4QGst10Discoverer16discoverUriAsyncEPKc@Base 1.2.0
 _ZN4QGst10Discoverer4stopEv@Base 1.2.0
 _ZN4QGst10Discoverer5startEv@Base 1.2.0
 _ZN4QGst10Discoverer6createENS_9ClockTimeE@Base 1.2.0
 _ZN4QGst10EosMessage6createERKN5QGlib10RefPointerINS_6ObjectEEE@Base 1.2.0
 _ZN4QGst10MiniObject3refEb@Base 1.2.0
 _ZN4QGst10MiniObject5unrefEv@Base 1.2.0
 _ZN4QGst10QosMessage6createERKN5QGlib10RefPointerINS_6ObjectEEEbyyyy@Base 1.2.0
 _ZN4QGst10QosMessage8setStatsENS_6FormatEyy@Base 1.2.0
 _ZN4QGst10QosMessage9setValuesExdi@Base 1.2.0
 _ZN4QGst10TagMessage6createERKN5QGlib10RefPointerINS_6ObjectEEERKNS_7TagListE@Base 1.2.0
 _ZN4QGst10UriHandler11makeFromUriENS_7UriTypeERK4QUrlPKc@Base 1.2.0
 _ZN4QGst10UriHandler19protocolIsSupportedENS_7UriTypeEPKc@Base 1.2.0
 _ZN4QGst10UriHandler6setUriERK4QUrl@Base 1.2.0
 _ZN4QGst11InfoMessage6createERKN5QGlib10RefPointerINS_6ObjectEEERKNS1_5ErrorEPKc@Base 1.2.0
 _ZN4QGst12ColorBalance8setValueERKN5QGlib10RefPointerINS_19ColorBalanceChannelEEEi@Base 1.2.0
 _ZN4QGst12ConvertQuery6createENS_6FormatExS1_@Base 1.2.0
 _ZN4QGst12ConvertQuery9setValuesENS_6FormatExS1_x@Base 1.2.0
 _ZN4QGst12ErrorMessage6createERKN5QGlib10RefPointerINS_6ObjectEEERKNS1_5ErrorEPKc@Base 1.2.0
 _ZN4QGst12FormatsQuery10setFormatsERK5QListINS_6FormatEE@Base 1.2.0
 _ZN4QGst12FormatsQuery6createEv@Base 1.2.0
 _ZN4QGst12LatencyEvent6createENS_9ClockTimeE@Base 1.2.0
 _ZN4QGst12LatencyQuery6createEv@Base 1.2.0
 _ZN4QGst12LatencyQuery9setValuesEbNS_9ClockTimeES1_@Base 1.2.0
 _ZN4QGst12SeekingQuery6createENS_6FormatE@Base 1.2.0
 _ZN4QGst12SeekingQuery9setValuesENS_6FormatEbxx@Base 1.2.0
 _ZN4QGst12SegmentEvent6createERKNS_7SegmentE@Base 1.2.0
 _ZN4QGst12SegmentQuery6createENS_6FormatE@Base 1.2.0
 _ZN4QGst12SegmentQuery9setValuesENS_6FormatEdxx@Base 1.2.0
 _ZN4QGst12StreamVolume7convertENS_18StreamVolumeFormatES1_d@Base 1.2.0
 _ZN4QGst12StreamVolume8setMutedEb@Base 1.2.0
 _ZN4QGst12StreamVolume9setVolumeEdNS_18StreamVolumeFormatE@Base 1.2.0
 (subst)_ZN4QGst12VideoOverlay15setWindowHandleE{quintptr}@Base 1.2.0
 _ZN4QGst12VideoOverlay18setRenderRectangleERK5QRect@Base 1.2.0
 _ZN4QGst12VideoOverlay18setRenderRectangleEiiii@Base 1.2.0
 _ZN4QGst12VideoOverlay19enableEventHandlingEb@Base 1.2.0
 _ZN4QGst12VideoOverlay28isPrepareWindowHandleMessageERKN5QGlib10RefPointerINS_7MessageEEE@Base 1.2.0
 _ZN4QGst12VideoOverlay6exposeEv@Base 1.2.0
 _ZN4QGst13DurationQuery6createENS_6FormatE@Base 1.2.0
 _ZN4QGst13DurationQuery9setValuesENS_6FormatEx@Base 1.2.0
 _ZN4QGst13PluginFeature4loadEv@Base 1.2.0
 _ZN4QGst13PluginFeature7setNameEPKc@Base 1.2.0
 _ZN4QGst13PluginFeature7setRankEj@Base 1.2.0
 _ZN4QGst13PositionQuery6createENS_6FormatE@Base 1.2.0
 _ZN4QGst13PositionQuery9setValuesENS_6FormatEx@Base 1.2.0
 _ZN4QGst14BufferingQuery17setBufferingRangeENS_6FormatExxx@Base 1.2.0
 _ZN4QGst14BufferingQuery17setBufferingStatsENS_13BufferingModeEiix@Base 1.2.0
 _ZN4QGst14BufferingQuery19setBufferingPercentEbi@Base 1.2.0
 _ZN4QGst14BufferingQuery6createENS_6FormatE@Base 1.2.0
 _ZN4QGst14ElementFactory4findEPKc@Base 1.2.0
 _ZN4QGst14ElementFactory4makeEPKcS2_@Base 1.2.0
 _ZN4QGst14ElementMessage6createERKN5QGlib10RefPointerINS_6ObjectEEERKNS_9StructureE@Base 1.2.0
 _ZN4QGst14FlushStopEvent6createEb@Base 1.2.0
 _ZN4QGst14LatencyMessage6createERKN5QGlib10RefPointerINS_6ObjectEEE@Base 1.2.0
 _ZN4QGst14WarningMessage6createERKN5QGlib10RefPointerINS_6ObjectEEERKNS1_5ErrorEPKc@Base 1.2.0
 _ZN4QGst15BufferSizeEvent6createENS_6FormatExxb@Base 1.2.0
 _ZN4QGst15FlushStartEvent6createEv@Base 1.2.0
 _ZN4QGst15NavigationEvent6createERKNS_9StructureE@Base 1.2.0
 _ZN4QGst15SharedStructureD0Ev@Base 1.2.0
 _ZN4QGst15SharedStructureD1Ev@Base 1.2.0
 _ZN4QGst15SharedStructureD2Ev@Base 1.2.0
 _ZN4QGst15StepDoneMessage6createERKN5QGlib10RefPointerINS_6ObjectEEENS_6FormatEydbbyb@Base 1.2.0
 (subst)_ZN4QGst16AllocationParams10setPaddingE{size_t}@Base 1.2.0
 (subst)_ZN4QGst16AllocationParams8setAlignE{size_t}@Base 1.2.0
 _ZN4QGst16AllocationParams8setFlagsE6QFlagsINS_10MemoryFlagEE@Base 1.2.0
 (subst)_ZN4QGst16AllocationParams9setPrefixE{size_t}@Base 1.2.0
 _ZN4QGst16AllocationParamsC1ERKS0_@Base 1.2.0
 _ZN4QGst16AllocationParamsC1Ev@Base 1.2.0
 _ZN4QGst16AllocationParamsC2ERKS0_@Base 1.2.0
 _ZN4QGst16AllocationParamsC2Ev@Base 1.2.0
 _ZN4QGst16AllocationParamsD0Ev@Base 1.2.0
 _ZN4QGst16AllocationParamsD1Ev@Base 1.2.0
 _ZN4QGst16AllocationParamsD2Ev@Base 1.2.0
 _ZN4QGst16AllocationParamsaSERKS0_@Base 1.2.0
 _ZN4QGst16AllocationParamscvP20_GstAllocationParamsEv@Base 1.2.0
 _ZN4QGst16AsyncDoneMessage6createERKN5QGlib10RefPointerINS_6ObjectEEENS_9ClockTimeE@Base 1.2.0
 _ZN4QGst16BufferingMessage6createERKN5QGlib10RefPointerINS_6ObjectEEEi@Base 1.2.0
 _ZN4QGst16BufferingMessage8setStatsENS_13BufferingModeEiix@Base 1.2.0
 _ZN4QGst16SinkMessageEvent6createERK7QStringRKN5QGlib10RefPointerINS_7MessageEEE@Base 1.2.0
 _ZN4QGst16StepStartMessage6createERKN5QGlib10RefPointerINS_6ObjectEEEbNS_6FormatEydbb@Base 1.2.0
 _ZN4QGst16VideoOrientation17setVerticalCenterEi@Base 1.2.0
 _ZN4QGst16VideoOrientation18enableVerticalFlipEb@Base 1.2.0
 _ZN4QGst16VideoOrientation19setHorizontalCenterEi@Base 1.2.0
 _ZN4QGst16VideoOrientation20enableHorizontalFlipEb@Base 1.2.0
 _ZN4QGst18ApplicationMessage6createERKN5QGlib10RefPointerINS_6ObjectEEERKNS_9StructureE@Base 1.2.0
 _ZN4QGst18SegmentDoneMessage6createERKN5QGlib10RefPointerINS_6ObjectEEENS_6FormatEx@Base 1.2.0
 _ZN4QGst19RequestStateMessage6createERKN5QGlib10RefPointerINS_6ObjectEEENS_5StateE@Base 1.2.0
 _ZN4QGst19StateChangedMessage6createERKN5QGlib10RefPointerINS_6ObjectEEENS_5StateES7_S7_@Base 1.2.0
 _ZN4QGst19StreamStatusMessage21setStreamStatusObjectERKN5QGlib5ValueE@Base 1.2.0
 _ZN4QGst19StreamStatusMessage6createERKN5QGlib10RefPointerINS_6ObjectEEENS_16StreamStatusTypeERKNS2_INS_7ElementEEE@Base 1.2.0
 _ZN4QGst22DurationChangedMessage6createERKN5QGlib10RefPointerINS_6ObjectEEE@Base 1.2.0
 _ZN4QGst3Bin15fromDescriptionEPKcNS0_24BinFromDescriptionOptionE@Base 1.2.0
 _ZN4QGst3Bin18recalculateLatencyEv@Base 1.2.0
 _ZN4QGst3Bin3addERKN5QGlib10RefPointerINS_7ElementEEE@Base 1.2.0
 _ZN4QGst3Bin6createEPKc@Base 1.2.0
 _ZN4QGst3Bin6removeERKN5QGlib10RefPointerINS_7ElementEEE@Base 1.2.0
 _ZN4QGst3Bus11setFlushingEb@Base 1.2.0
 _ZN4QGst3Bus14addSignalWatchEv@Base 1.2.0
 _ZN4QGst3Bus17removeSignalWatchEv@Base 1.2.0
 _ZN4QGst3Bus25enableSyncMessageEmissionEv@Base 1.2.0
 _ZN4QGst3Bus26disableSyncMessageEmissionEv@Base 1.2.0
 _ZN4QGst3Bus3popENS_11MessageTypeENS_9ClockTimeE@Base 1.2.0
 _ZN4QGst3Bus3popENS_9ClockTimeE@Base 1.2.0
 _ZN4QGst3Bus4postERKN5QGlib10RefPointerINS_7MessageEEE@Base 1.2.0
 _ZN4QGst3Bus6createEv@Base 1.2.0
 _ZN4QGst3Pad4linkERKN5QGlib10RefPointerIS0_EE@Base 1.2.0
 _ZN4QGst3Pad5queryERKN5QGlib10RefPointerINS_5QueryEEE@Base 1.2.0
 _ZN4QGst3Pad6createENS_12PadDirectionEPKc@Base 1.2.0
 _ZN4QGst3Pad6unlinkERKN5QGlib10RefPointerIS0_EE@Base 1.2.0
 _ZN4QGst3Pad9sendEventERKN5QGlib10RefPointerINS_5EventEEE@Base 1.2.0
 _ZN4QGst3Pad9setActiveEb@Base 1.2.0
 _ZN4QGst4Caps10fromStringEPKc@Base 1.2.0
 _ZN4QGst4Caps11createEmptyEv@Base 1.2.0
 _ZN4QGst4Caps12createSimpleEPKc@Base 1.2.0
 _ZN4QGst4Caps14mergeStructureERNS_9StructureE@Base 1.2.0
 _ZN4QGst4Caps15appendStructureERKNS_9StructureE@Base 1.2.0
 _ZN4QGst4Caps15removeStructureEj@Base 1.2.0
 _ZN4QGst4Caps17internalStructureEj@Base 1.2.0
 _ZN4QGst4Caps5mergeERN5QGlib10RefPointerIS0_EE@Base 1.2.0
 _ZN4QGst4Caps6appendERKN5QGlib10RefPointerIS0_EE@Base 1.2.0
 _ZN4QGst4Caps8setValueEPKcRKN5QGlib5ValueE@Base 1.2.0
 _ZN4QGst4Caps8simplifyEv@Base 1.2.0
 _ZN4QGst4Caps8truncateEv@Base 1.2.0
 _ZN4QGst4Caps9createAnyEv@Base 1.2.0
 _ZN4QGst4Caps9getNormalEv@Base 1.2.0
 _ZN4QGst4initEPiPPPc@Base 1.2.0
 _ZN4QGst4initEv@Base 1.2.0
 _ZN4QGst5Clock11systemClockEv@Base 1.2.0
 _ZN4QGst5Event17internalStructureEv@Base 1.2.0
 _ZN4QGst5Event17setSequenceNumberEj@Base 1.2.0
 _ZN4QGst5Parse6launchEPKc@Base 1.2.0
 _ZN4QGst5Parse6launchEPPKc@Base 1.2.0
 _ZN4QGst5Query17internalStructureEv@Base 1.2.0
 _ZN4QGst6Buffer3mapERNS_7MapInfoE6QFlagsINS_7MapFlagEE@Base 1.2.0
 _ZN4QGst6Buffer5unmapERNS_7MapInfoE@Base 1.2.0
 _ZN4QGst6Buffer6createEj@Base 1.2.0
 _ZN4QGst6Buffer7extractEjPvj@Base 1.2.0
 _ZN4QGst6Buffer7setSizeEj@Base 1.2.0
 _ZN4QGst6Buffer8setFlagsE6QFlagsINS_10BufferFlagEE@Base 1.2.0
 _ZN4QGst6Memory3mapERNS_7MapInfoE6QFlagsINS_7MapFlagEE@Base 1.2.0
 _ZN4QGst6Memory5unmapERNS_7MapInfoE@Base 1.2.0
 _ZN4QGst6Object3refEb@Base 1.2.0
 _ZN4QGst6Object5unrefEv@Base 1.2.0
 _ZN4QGst6Object7setNameEPKc@Base 1.2.0
 _ZN4QGst6Object8unparentEv@Base 1.2.0
 _ZN4QGst6Object9setParentERKN5QGlib10RefPointerIS0_EE@Base 1.2.0
 _ZN4QGst6Sample6createERKN5QGlib10RefPointerINS_6BufferEEERKNS2_INS_4CapsEEERKNS_7SegmentERKNS_9StructureE@Base 1.2.0
 _ZN4QGst7Element12getStaticPadEPKc@Base 1.2.0
 _ZN4QGst7Element13getRequestPadEPKc@Base 1.2.0
 _ZN4QGst7Element14setStateLockedEb@Base 1.2.0
 _ZN4QGst7Element17releaseRequestPadERKN5QGlib10RefPointerINS_3PadEEE@Base 1.2.0
 _ZN4QGst7Element19syncStateWithParentEv@Base 1.2.0
 _ZN4QGst7Element4linkEPKcRKN5QGlib10RefPointerIS0_EERKNS4_INS_4CapsEEE@Base 1.2.0
 _ZN4QGst7Element4linkEPKcRKN5QGlib10RefPointerIS0_EES2_RKNS4_INS_4CapsEEE@Base 1.2.0
 _ZN4QGst7Element4linkERKN5QGlib10RefPointerIS0_EEPKcRKNS2_INS_4CapsEEE@Base 1.2.0
 _ZN4QGst7Element4linkERKN5QGlib10RefPointerIS0_EERKNS2_INS_4CapsEEE@Base 1.2.0
 _ZN4QGst7Element4seekENS_6FormatE6QFlagsINS_8SeekFlagEEy@Base 1.2.0
 _ZN4QGst7Element5queryERKN5QGlib10RefPointerINS_5QueryEEE@Base 1.2.0
 _ZN4QGst7Element6addPadERKN5QGlib10RefPointerINS_3PadEEE@Base 1.2.0
 _ZN4QGst7Element6unlinkEPKcRKN5QGlib10RefPointerIS0_EES2_@Base 1.2.0
 _ZN4QGst7Element6unlinkERKN5QGlib10RefPointerIS0_EEPKc@Base 1.2.0
 _ZN4QGst7Element8setClockERKN5QGlib10RefPointerINS_5ClockEEE@Base 1.2.0
 _ZN4QGst7Element8setStateENS_5StateE@Base 1.2.0
 _ZN4QGst7Element9removePadERKN5QGlib10RefPointerINS_3PadEEE@Base 1.2.0
 _ZN4QGst7Element9sendEventERKN5QGlib10RefPointerINS_5EventEEE@Base 1.2.0
 _ZN4QGst7MapInfoC1Ev@Base 1.2.0
 _ZN4QGst7MapInfoC2Ev@Base 1.2.0
 _ZN4QGst7MapInfoD0Ev@Base 1.2.0
 _ZN4QGst7MapInfoD1Ev@Base 1.2.0
 _ZN4QGst7MapInfoD2Ev@Base 1.2.0
 _ZN4QGst7Message17internalStructureEv@Base 1.2.0
 _ZN4QGst7Message17setSequenceNumberEj@Base 1.2.0
 _ZN4QGst7Private14wrapMiniObjectEPv@Base 1.2.0
 _ZN4QGst7Segment4initENS_6FormatE@Base 1.2.0
 _ZN4QGst7SegmentC1ENS_6FormatE@Base 1.2.0
 _ZN4QGst7SegmentC1EPK11_GstSegment@Base 1.2.0
 _ZN4QGst7SegmentC1ERKS0_@Base 1.2.0
 _ZN4QGst7SegmentC1Ev@Base 1.2.0
 _ZN4QGst7SegmentC2ENS_6FormatE@Base 1.2.0
 _ZN4QGst7SegmentC2EPK11_GstSegment@Base 1.2.0
 _ZN4QGst7SegmentC2ERKS0_@Base 1.2.0
 _ZN4QGst7SegmentC2Ev@Base 1.2.0
 _ZN4QGst7SegmentD0Ev@Base 1.2.0
 _ZN4QGst7SegmentD1Ev@Base 1.2.0
 _ZN4QGst7SegmentD2Ev@Base 1.2.0
 _ZN4QGst7SegmentaSERKS0_@Base 1.2.0
 _ZN4QGst7SegmentcvP11_GstSegmentEv@Base 1.2.0
 _ZN4QGst7TagList10setBitrateEj@Base 1.2.0
 _ZN4QGst7TagList10setCommentERK7QStringNS_12TagMergeModeE@Base 1.2.0
 _ZN4QGst7TagList10setContactERK7QStringNS_12TagMergeModeE@Base 1.2.0
 _ZN4QGst7TagList10setEncoderERK7QString@Base 1.2.0
 _ZN4QGst7TagList10setLicenseERK7QString@Base 1.2.0
 _ZN4QGst7TagList10setVersionERK7QString@Base 1.2.0
 _ZN4QGst7TagList11setComposerERK7QStringNS_12TagMergeModeE@Base 1.2.0
 _ZN4QGst7TagList11setDateTimeERK9QDateTime@Base 1.2.0
 _ZN4QGst7TagList11setDurationEy@Base 1.2.0
 _ZN4QGst7TagList11setGroupingERK7QString@Base 1.2.0
 _ZN4QGst7TagList11setHomepageERK7QStringNS_12TagMergeModeE@Base 1.2.0
 _ZN4QGst7TagList11setKeywordsERK7QStringNS_12TagMergeModeE@Base 1.2.0
 _ZN4QGst7TagList11setLocationERK7QStringNS_12TagMergeModeE@Base 1.2.0
 _ZN4QGst7TagList11setShowNameERK7QStringNS_12TagMergeModeE@Base 1.2.0
 _ZN4QGst7TagList11setTagValueEPKcRKN5QGlib5ValueENS_12TagMergeModeE@Base 1.2.0
 _ZN4QGst7TagList12setAlbumGainEd@Base 1.2.0
 _ZN4QGst7TagList12setAlbumPeakEd@Base 1.2.0
 _ZN4QGst7TagList12setCopyrightERK7QString@Base 1.2.0
 _ZN4QGst7TagList12setPerformerERK7QStringNS_12TagMergeModeE@Base 1.2.0
 _ZN4QGst7TagList12setTrackGainEd@Base 1.2.0
 _ZN4QGst7TagList12setTrackPeakEd@Base 1.2.0
 _ZN4QGst7TagList13setAttachmentERKN5QGlib10RefPointerINS_6SampleEEENS_12TagMergeModeE@Base 1.2.0
 _ZN4QGst7TagList13setAudioCodecERK7QString@Base 1.2.0
 _ZN4QGst7TagList13setLicenseUriERK7QString@Base 1.2.0
 _ZN4QGst7TagList13setTrackCountEj@Base 1.2.0
 _ZN4QGst7TagList13setUserRatingEj@Base 1.2.0
 _ZN4QGst7TagList13setVideoCodecERK7QString@Base 1.2.0
 _ZN4QGst7TagList14setDescriptionERK7QStringNS_12TagMergeModeE@Base 1.2.0
 _ZN4QGst7TagList14setDeviceModelERK7QString@Base 1.2.0
 _ZN4QGst7TagList14setTrackNumberEj@Base 1.2.0
 _ZN4QGst7TagList15setCopyrightUriERK7QString@Base 1.2.0
 _ZN4QGst7TagList15setLanguageCodeERK7QString@Base 1.2.0
 _ZN4QGst7TagList15setOrganizationERK7QStringNS_12TagMergeModeE@Base 1.2.0
 _ZN4QGst7TagList15setPreviewImageERKN5QGlib10RefPointerINS_6SampleEEE@Base 1.2.0
 _ZN4QGst7TagList15setShowSortNameERK7QString@Base 1.2.0
 _ZN4QGst7TagList16setSubtitleCodecERK7QString@Base 1.2.0
 _ZN4QGst7TagList16setTitleSortNameERK7QString@Base 1.2.0
 _ZN4QGst7TagList17seGeoLocationNameERK7QString@Base 1.2.0
 _ZN4QGst7TagList17setArtistSortNameERK7QString@Base 1.2.0
 _ZN4QGst7TagList17setBeatsPerMinuteEd@Base 1.2.0
 _ZN4QGst7TagList17setEncoderVersionEj@Base 1.2.0
 _ZN4QGst7TagList17setMaximumBitrateEj@Base 1.2.0
 _ZN4QGst7TagList17setMinimumBitrateEj@Base 1.2.0
 _ZN4QGst7TagList17setNominalBitrateEj@Base 1.2.0
 _ZN4QGst7TagList17setReferenceLevelEd@Base 1.2.0
 _ZN4QGst7TagList18setApplicationDataERKN5QGlib10RefPointerINS_6SampleEEE@Base 1.2.0
 _ZN4QGst7TagList18setApplicationNameERK7QString@Base 1.2.0
 _ZN4QGst7TagList18setContainerFormatERK7QString@Base 1.2.0
 _ZN4QGst7TagList18setExtendedCommentERK7QStringNS_12TagMergeModeE@Base 1.2.0
 _ZN4QGst7TagList18setGeoLocationCityERK7QString@Base 1.2.0
 _ZN4QGst7TagList19setAlbumVolumeCountEj@Base 1.2.0
 _ZN4QGst7TagList19setComposerSortNameERK7QString@Base 1.2.0
 _ZN4QGst7TagList19setImageOrientationERK7QString@Base 1.2.0
 _ZN4QGst7TagList19setShowSeasonNumberEj@Base 1.2.0
 _ZN4QGst7TagList20setAlbumVolumeNumberEj@Base 1.2.0
 _ZN4QGst7TagList20setShowEpisodeNumberEj@Base 1.2.0
 _ZN4QGst7TagList21setDeviceManufacturerERK7QString@Base 1.2.0
 _ZN4QGst7TagList21setGeoLocationCountryERK7QString@Base 1.2.0
 _ZN4QGst7TagList22setGeoLocationLatitudeEd@Base 1.2.0
 _ZN4QGst7TagList23setGeoLocationElevationEd@Base 1.2.0
 _ZN4QGst7TagList23setGeoLocationLongitudeEd@Base 1.2.0
 _ZN4QGst7TagList25setGeoLocationSublocationERK7QString@Base 1.2.0
 _ZN4QGst7TagList27setGeoLocationMovementSpeedEd@Base 1.2.0
 _ZN4QGst7TagList29setGeoLocationCaptureDirectorEd@Base 1.2.0
 _ZN4QGst7TagList29setGeoLocationHorizontalErrorEd@Base 1.2.0
 _ZN4QGst7TagList31setGeoLocationMovementDirectionEd@Base 1.2.0
 _ZN4QGst7TagList5clearEv@Base 1.2.0
 _ZN4QGst7TagList5mergeERKS0_S2_NS_12TagMergeModeE@Base 1.2.0
 _ZN4QGst7TagList6insertERKS0_NS_12TagMergeModeE@Base 1.2.0
 _ZN4QGst7TagList7setDateERK5QDate@Base 1.2.0
 _ZN4QGst7TagList7setIsrcERK7QString@Base 1.2.0
 _ZN4QGst7TagList8setCodecERK7QString@Base 1.2.0
 _ZN4QGst7TagList8setGenreERK7QStringNS_12TagMergeModeE@Base 1.2.0
 _ZN4QGst7TagList8setImageERKN5QGlib10RefPointerINS_6SampleEEENS_12TagMergeModeE@Base 1.2.0
 _ZN4QGst7TagList8setTitleERK7QStringNS_12TagMergeModeE@Base 1.2.0
 _ZN4QGst7TagList9removeTagEPKc@Base 1.2.0
 _ZN4QGst7TagList9setArtistERK7QStringNS_12TagMergeModeE@Base 1.2.0
 _ZN4QGst7TagList9setLyricsERK7QStringNS_12TagMergeModeE@Base 1.2.0
 _ZN4QGst7TagList9setSerialEj@Base 1.2.0
 _ZN4QGst7TagListC1EPK11_GstTagList@Base 1.2.0
 _ZN4QGst7TagListC1ERKS0_@Base 1.2.0
 _ZN4QGst7TagListC1Ev@Base 1.2.0
 _ZN4QGst7TagListC2EPK11_GstTagList@Base 1.2.0
 _ZN4QGst7TagListC2ERKS0_@Base 1.2.0
 _ZN4QGst7TagListC2Ev@Base 1.2.0
 _ZN4QGst7TagListD0Ev@Base 1.2.0
 _ZN4QGst7TagListD1Ev@Base 1.2.0
 _ZN4QGst7TagListD2Ev@Base 1.2.0
 _ZN4QGst7TagListaSERKS0_@Base 1.2.0
 _ZN4QGst7TagListcvP11_GstTagListEv@Base 1.2.0
 _ZN4QGst7cleanupEv@Base 1.2.0
 _ZN4QGst8EosEvent6createEv@Base 1.2.0
 _ZN4QGst8GhostPad6createENS_12PadDirectionEPKc@Base 1.2.0
 _ZN4QGst8GhostPad6createERKN5QGlib10RefPointerINS_3PadEEEPKc@Base 1.2.0
 _ZN4QGst8GhostPad9setTargetERKN5QGlib10RefPointerINS_3PadEEE@Base 1.2.0
 _ZN4QGst8Pipeline15enableAutoClockEv@Base 1.2.0
 _ZN4QGst8Pipeline6createEPKc@Base 1.2.0
 _ZN4QGst8Pipeline8setClockERKN5QGlib10RefPointerINS_5ClockEEE@Base 1.2.0
 _ZN4QGst8Pipeline8useClockERKN5QGlib10RefPointerINS_5ClockEEE@Base 1.2.0
 _ZN4QGst8QosEvent6createENS_7QosTypeEdxNS_9ClockTimeE@Base 1.2.0
 _ZN4QGst8TagEvent6createERKNS_7TagListE@Base 1.2.0
 _ZN4QGst8UriQuery6createEv@Base 1.2.0
 _ZN4QGst8UriQuery6setUriERK4QUrl@Base 1.2.0
 _ZN4QGst9Allocator10getDefaultEv@Base 1.2.0
 _ZN4QGst9Allocator15getSystemMemoryEv@Base 1.2.0
 _ZN4QGst9Allocator4findEPKc@Base 1.2.0
 _ZN4QGst9Allocator4freeERN5QGlib10RefPointerINS_6MemoryEEE@Base 1.2.0
 (subst)_ZN4QGst9Allocator5allocE{size_t}RKNS_16AllocationParamsE@Base 1.2.0
 _ZN4QGst9CapsEvent6createERKN5QGlib10RefPointerINS_4CapsEEE@Base 1.2.0
 _ZN4QGst9ClockTime8fromTimeERK5QTime@Base 1.2.0
 _ZN4QGst9SeekEvent6createEdNS_6FormatE6QFlagsINS_8SeekFlagEENS_8SeekTypeExS5_x@Base 1.2.0
 _ZN4QGst9StepEvent6createENS_6FormatEydbb@Base 1.2.0
 _ZN4QGst9Structure10fromStringEPKc@Base 1.2.0
 _ZN4QGst9Structure11removeFieldEPKc@Base 1.2.0
 _ZN4QGst9Structure15removeAllFieldsEv@Base 1.2.0
 _ZN4QGst9Structure7setNameEPKc@Base 1.2.0
 _ZN4QGst9Structure8setValueEPKcRKN5QGlib5ValueE@Base 1.2.0
 _ZN4QGst9StructureC1EPK13_GstStructure@Base 1.2.0
 _ZN4QGst9StructureC1EPKc@Base 1.2.0
 _ZN4QGst9StructureC1ERKS0_@Base 1.2.0
 _ZN4QGst9StructureC1Ev@Base 1.2.0
 _ZN4QGst9StructureC2EPK13_GstStructure@Base 1.2.0
 _ZN4QGst9StructureC2EPKc@Base 1.2.0
 _ZN4QGst9StructureC2ERKS0_@Base 1.2.0
 _ZN4QGst9StructureC2Ev@Base 1.2.0
 _ZN4QGst9StructureD0Ev@Base 1.2.0
 _ZN4QGst9StructureD1Ev@Base 1.2.0
 _ZN4QGst9StructureD2Ev@Base 1.2.0
 _ZN4QGst9StructureaSERKS0_@Base 1.2.0
 _ZN4QGst9StructurecvP13_GstStructureEv@Base 1.2.0
 _ZN4QGstlsE6QDebugNS_16DiscovererResultE@Base 1.2.0
 _ZN4QGstlsE6QDebugRKN5QGlib10RefPointerINS_14DiscovererInfoEEE@Base 1.2.0
 _ZN4QGstlsE6QDebugRKN5QGlib10RefPointerINS_20DiscovererStreamInfoEEE@Base 1.2.0
 _ZN4QGstlsE6QDebugRKN5QGlib10RefPointerINS_4CapsEEE@Base 1.2.0
 _ZN4QGstlsE6QDebugRKNS_7TagListE@Base 1.2.0
 _ZN4QGstlsE6QDebugRKNS_9StructureE@Base 1.2.0
 _ZN5QGlib11GetTypeImplI5QDateEcvNS_4TypeEEv@Base 1.2.0
 _ZN5QGlib11GetTypeImplI6QFlagsIN4QGst10BufferFlagEEEcvNS_4TypeEEv@Base 1.2.0
 _ZN5QGlib11GetTypeImplI6QFlagsIN4QGst10MemoryFlagEEEcvNS_4TypeEEv@Base 1.2.0
 _ZN5QGlib11GetTypeImplI6QFlagsIN4QGst10ObjectFlagEEEcvNS_4TypeEEv@Base 1.2.0
 _ZN5QGlib11GetTypeImplI6QFlagsIN4QGst11SegmentFlagEEEcvNS_4TypeEEv@Base 1.2.0
 _ZN5QGlib11GetTypeImplI6QFlagsIN4QGst13EventTypeFlagEEEcvNS_4TypeEEv@Base 1.2.0
 _ZN5QGlib11GetTypeImplI6QFlagsIN4QGst13QueryTypeFlagEEEcvNS_4TypeEEv@Base 1.2.0
 _ZN5QGlib11GetTypeImplI6QFlagsIN4QGst14MiniObjectFlagEEEcvNS_4TypeEEv@Base 1.2.0
 _ZN5QGlib11GetTypeImplI6QFlagsIN4QGst7MapFlagEEEcvNS_4TypeEEv@Base 1.2.0
 _ZN5QGlib11GetTypeImplI6QFlagsIN4QGst7PadFlagEEEcvNS_4TypeEEv@Base 1.2.0
 _ZN5QGlib11GetTypeImplI6QFlagsIN4QGst7TagFlagEEEcvNS_4TypeEEv@Base 1.2.0
 _ZN5QGlib11GetTypeImplI6QFlagsIN4QGst8SeekFlagEEEcvNS_4TypeEEv@Base 1.2.0
 _ZN5QGlib11GetTypeImplI9QDateTimeEcvNS_4TypeEEv@Base 1.2.0
 _ZN5QGlib11GetTypeImplIN4QGst10BufferListEEcvNS_4TypeEEv@Base 1.2.0
 _ZN5QGlib11GetTypeImplIN4QGst10ChildProxyEEcvNS_4TypeEEv@Base 1.2.0
 _ZN5QGlib11GetTypeImplIN4QGst10DiscovererEEcvNS_4TypeEEv@Base 1.2.0
 _ZN5QGlib11GetTypeImplIN4QGst10FlowReturnEEcvNS_4TypeEEv@Base 1.2.0
 _ZN5QGlib11GetTypeImplIN4QGst10ParseErrorEEcvNS_4TypeEEv@Base 1.2.0
 _ZN5QGlib11GetTypeImplIN4QGst10UriHandlerEEcvNS_4TypeEEv@Base 1.2.0
 _ZN5QGlib11GetTypeImplIN4QGst11MessageTypeEEcvNS_4TypeEEv@Base 1.2.0
 _ZN5QGlib11GetTypeImplIN4QGst11StateChangeEEcvNS_4TypeEEv@Base 1.2.0
 _ZN5QGlib11GetTypeImplIN4QGst12ColorBalanceEEcvNS_4TypeEEv@Base 1.2.0
 _ZN5QGlib11GetTypeImplIN4QGst12PadDirectionEEcvNS_4TypeEEv@Base 1.2.0
 _ZN5QGlib11GetTypeImplIN4QGst12StreamVolumeEEcvNS_4TypeEEv@Base 1.2.0
 _ZN5QGlib11GetTypeImplIN4QGst12TagMergeModeEEcvNS_4TypeEEv@Base 1.2.0
 _ZN5QGlib11GetTypeImplIN4QGst12VideoOverlayEEcvNS_4TypeEEv@Base 1.2.0
 _ZN5QGlib11GetTypeImplIN4QGst13BufferingModeEEcvNS_4TypeEEv@Base 1.2.0
 _ZN5QGlib11GetTypeImplIN4QGst13PadLinkReturnEEcvNS_4TypeEEv@Base 1.2.0
 _ZN5QGlib11GetTypeImplIN4QGst13PluginFeatureEEcvNS_4TypeEEv@Base 1.2.0
 _ZN5QGlib11GetTypeImplIN4QGst14DiscovererInfoEEcvNS_4TypeEEv@Base 1.2.0
 _ZN5QGlib11GetTypeImplIN4QGst14ElementFactoryEEcvNS_4TypeEEv@Base 1.2.0
 _ZN5QGlib11GetTypeImplIN4QGst16ColorBalanceTypeEEcvNS_4TypeEEv@Base 1.2.0
 _ZN5QGlib11GetTypeImplIN4QGst16DiscovererResultEEcvNS_4TypeEEv@Base 1.2.0
 _ZN5QGlib11GetTypeImplIN4QGst16StreamStatusTypeEEcvNS_4TypeEEv@Base 1.2.0
 _ZN5QGlib11GetTypeImplIN4QGst16VideoOrientationEEcvNS_4TypeEEv@Base 1.2.0
 _ZN5QGlib11GetTypeImplIN4QGst17StateChangeReturnEEcvNS_4TypeEEv@Base 1.2.0
 _ZN5QGlib11GetTypeImplIN4QGst19ColorBalanceChannelEEcvNS_4TypeEEv@Base 1.2.0
 _ZN5QGlib11GetTypeImplIN4QGst19DiscovererAudioInfoEEcvNS_4TypeEEv@Base 1.2.0
 _ZN5QGlib11GetTypeImplIN4QGst19DiscovererVideoInfoEEcvNS_4TypeEEv@Base 1.2.0
 _ZN5QGlib11GetTypeImplIN4QGst20DiscovererStreamInfoEEcvNS_4TypeEEv@Base 1.2.0
 _ZN5QGlib11GetTypeImplIN4QGst22DiscovererSubtitleInfoEEcvNS_4TypeEEv@Base 1.2.0
 _ZN5QGlib11GetTypeImplIN4QGst23DiscovererContainerInfoEEcvNS_4TypeEEv@Base 1.2.0
 _ZN5QGlib11GetTypeImplIN4QGst3BinEEcvNS_4TypeEEv@Base 1.2.0
 _ZN5QGlib11GetTypeImplIN4QGst3BusEEcvNS_4TypeEEv@Base 1.2.0
 _ZN5QGlib11GetTypeImplIN4QGst3PadEEcvNS_4TypeEEv@Base 1.2.0
 _ZN5QGlib11GetTypeImplIN4QGst4CapsEEcvNS_4TypeEEv@Base 1.2.0
 _ZN5QGlib11GetTypeImplIN4QGst4RankEEcvNS_4TypeEEv@Base 1.2.0
 _ZN5QGlib11GetTypeImplIN4QGst5ClockEEcvNS_4TypeEEv@Base 1.2.0
 _ZN5QGlib11GetTypeImplIN4QGst5EventEEcvNS_4TypeEEv@Base 1.2.0
 _ZN5QGlib11GetTypeImplIN4QGst5QueryEEcvNS_4TypeEEv@Base 1.2.0
 _ZN5QGlib11GetTypeImplIN4QGst5StateEEcvNS_4TypeEEv@Base 1.2.0
 _ZN5QGlib11GetTypeImplIN4QGst6BufferEEcvNS_4TypeEEv@Base 1.2.0
 _ZN5QGlib11GetTypeImplIN4QGst6FormatEEcvNS_4TypeEEv@Base 1.2.0
 _ZN5QGlib11GetTypeImplIN4QGst6FourccEEcvNS_4TypeEEv@Base 1.2.0
 _ZN5QGlib11GetTypeImplIN4QGst6MemoryEEcvNS_4TypeEEv@Base 1.2.0
 _ZN5QGlib11GetTypeImplIN4QGst6ObjectEEcvNS_4TypeEEv@Base 1.2.0
 _ZN5QGlib11GetTypeImplIN4QGst6SampleEEcvNS_4TypeEEv@Base 1.2.0
 _ZN5QGlib11GetTypeImplIN4QGst7ElementEEcvNS_4TypeEEv@Base 1.2.0
 _ZN5QGlib11GetTypeImplIN4QGst7MessageEEcvNS_4TypeEEv@Base 1.2.0
 _ZN5QGlib11GetTypeImplIN4QGst7PadModeEEcvNS_4TypeEEv@Base 1.2.0
 _ZN5QGlib11GetTypeImplIN4QGst7Private5RangeINS1_8FractionEEEEcvNS_4TypeEEv@Base 1.2.0
 _ZN5QGlib11GetTypeImplIN4QGst7Private5RangeIdEEEcvNS_4TypeEEv@Base 1.2.0
 _ZN5QGlib11GetTypeImplIN4QGst7Private5RangeIiEEEcvNS_4TypeEEv@Base 1.2.0
 _ZN5QGlib11GetTypeImplIN4QGst7Private5RangeIxEEEcvNS_4TypeEEv@Base 1.2.0
 _ZN5QGlib11GetTypeImplIN4QGst7QosTypeEEcvNS_4TypeEEv@Base 1.2.0
 _ZN5QGlib11GetTypeImplIN4QGst7SegmentEEcvNS_4TypeEEv@Base 1.2.0
 _ZN5QGlib11GetTypeImplIN4QGst7TagListEEcvNS_4TypeEEv@Base 1.2.0
 _ZN5QGlib11GetTypeImplIN4QGst7UriTypeEEcvNS_4TypeEEv@Base 1.2.0
 _ZN5QGlib11GetTypeImplIN4QGst8FractionEEcvNS_4TypeEEv@Base 1.2.0
 _ZN5QGlib11GetTypeImplIN4QGst8GhostPadEEcvNS_4TypeEEv@Base 1.2.0
 _ZN5QGlib11GetTypeImplIN4QGst8PipelineEEcvNS_4TypeEEv@Base 1.2.0
 _ZN5QGlib11GetTypeImplIN4QGst8SeekTypeEEcvNS_4TypeEEv@Base 1.2.0
 _ZN5QGlib11GetTypeImplIN4QGst9AllocatorEEcvNS_4TypeEEv@Base 1.2.0
 _ZN5QGlib11GetTypeImplIN4QGst9ClockTimeEEcvNS_4TypeEEv@Base 1.2.0
 _ZN5QGlib11GetTypeImplIN4QGst9EventTypeEEcvNS_4TypeEEv@Base 1.2.0
 _ZN5QGlib11GetTypeImplIN4QGst9QueryTypeEEcvNS_4TypeEEv@Base 1.2.0
 _ZN5QGlib11GetTypeImplIN4QGst9StructureEEcvNS_4TypeEEv@Base 1.2.0
 (optional=templinst)_ZN5QGlib5Value3setI7QStringEEvRKT_@Base 1.2.0
 (optional=templinst)_ZN5QGlib5Value3setI9QDateTimeEEvRKT_@Base 1.2.0
 (optional=templinst)_ZN5QGlib5Value3setINS_10RefPointerIN4QGst6SampleEEEEEvRKT_@Base 1.2.0
 _ZNK4QGst10BufferList6lengthEv@Base 1.2.0
 _ZNK4QGst10BufferList8bufferAtEj@Base 1.2.0
 _ZNK4QGst10ChildProxy11childByNameEPKc@Base 1.2.0
 _ZNK4QGst10ChildProxy12childByIndexEj@Base 1.2.0
 _ZNK4QGst10ChildProxy13childPropertyEPKc@Base 1.2.0
 _ZNK4QGst10ChildProxy13childrenCountEv@Base 1.2.0
 _ZNK4QGst10ChildProxy17findChildPropertyEPKcPN5QGlib10RefPointerINS3_6ObjectEEEPNS4_INS3_9ParamSpecEEE@Base 1.2.0
 _ZNK4QGst10MiniObject10isWritableEv@Base 1.2.0
 _ZNK4QGst10MiniObject12makeWritableEv@Base 1.2.0
 _ZNK4QGst10MiniObject4copyEv@Base 1.2.0
 _ZNK4QGst10QosMessage10proportionEv@Base 1.2.0
 _ZNK4QGst10QosMessage10streamTimeEv@Base 1.2.0
 _ZNK4QGst10QosMessage11runningTimeEv@Base 1.2.0
 _ZNK4QGst10QosMessage4liveEv@Base 1.2.0
 _ZNK4QGst10QosMessage6formatEv@Base 1.2.0
 _ZNK4QGst10QosMessage6jitterEv@Base 1.2.0
 _ZNK4QGst10QosMessage7droppedEv@Base 1.2.0
 _ZNK4QGst10QosMessage7qualityEv@Base 1.2.0
 _ZNK4QGst10QosMessage8durationEv@Base 1.2.0
 _ZNK4QGst10QosMessage9processedEv@Base 1.2.0
 _ZNK4QGst10QosMessage9timestampEv@Base 1.2.0
 _ZNK4QGst10TagMessage7taglistEv@Base 1.2.0
 _ZNK4QGst10UriHandler18supportedProtocolsEv@Base 1.2.0
 _ZNK4QGst10UriHandler3uriEv@Base 1.2.0
 _ZNK4QGst10UriHandler7uriTypeEv@Base 1.2.0
 _ZNK4QGst11InfoMessage12debugMessageEv@Base 1.2.0
 _ZNK4QGst11InfoMessage5errorEv@Base 1.2.0
 _ZNK4QGst12ColorBalance4typeEv@Base 1.2.0
 _ZNK4QGst12ColorBalance5valueERKN5QGlib10RefPointerINS_19ColorBalanceChannelEEE@Base 1.2.0
 _ZNK4QGst12ColorBalance8channelsEv@Base 1.2.0
 _ZNK4QGst12ConvertQuery11sourceValueEv@Base 1.2.0
 _ZNK4QGst12ConvertQuery12sourceFormatEv@Base 1.2.0
 _ZNK4QGst12ConvertQuery16destinationValueEv@Base 1.2.0
 _ZNK4QGst12ConvertQuery17destinationFormatEv@Base 1.2.0
 _ZNK4QGst12ErrorMessage12debugMessageEv@Base 1.2.0
 _ZNK4QGst12ErrorMessage5errorEv@Base 1.2.0
 _ZNK4QGst12FormatsQuery7formatsEv@Base 1.2.0
 _ZNK4QGst12LatencyEvent7latencyEv@Base 1.2.0
 _ZNK4QGst12LatencyQuery14maximumLatencyEv@Base 1.2.0
 _ZNK4QGst12LatencyQuery14minimumLatencyEv@Base 1.2.0
 _ZNK4QGst12LatencyQuery7hasLiveEv@Base 1.2.0
 _ZNK4QGst12SeekingQuery10segmentEndEv@Base 1.2.0
 _ZNK4QGst12SeekingQuery12segmentStartEv@Base 1.2.0
 _ZNK4QGst12SeekingQuery6formatEv@Base 1.2.0
 _ZNK4QGst12SeekingQuery8seekableEv@Base 1.2.0
 _ZNK4QGst12SegmentEvent7segmentEv@Base 1.2.0
 _ZNK4QGst12SegmentQuery10startValueEv@Base 1.2.0
 _ZNK4QGst12SegmentQuery4rateEv@Base 1.2.0
 _ZNK4QGst12SegmentQuery6formatEv@Base 1.2.0
 _ZNK4QGst12SegmentQuery9stopValueEv@Base 1.2.0
 _ZNK4QGst12StreamVolume6volumeENS_18StreamVolumeFormatE@Base 1.2.0
 _ZNK4QGst12StreamVolume7isMutedEv@Base 1.2.0
 _ZNK4QGst13DurationQuery6formatEv@Base 1.2.0
 _ZNK4QGst13DurationQuery8durationEv@Base 1.2.0
 _ZNK4QGst13PluginFeature16isAtLeastVersionEjjj@Base 1.2.0
 _ZNK4QGst13PluginFeature4nameEv@Base 1.2.0
 _ZNK4QGst13PluginFeature4rankEv@Base 1.2.0
 _ZNK4QGst13PositionQuery6formatEv@Base 1.2.0
 _ZNK4QGst13PositionQuery8positionEv@Base 1.2.0
 _ZNK4QGst14BufferingQuery10averageOutEv@Base 1.2.0
 _ZNK4QGst14BufferingQuery10rangeStartEv@Base 1.2.0
 _ZNK4QGst14BufferingQuery11rangeFormatEv@Base 1.2.0
 _ZNK4QGst14BufferingQuery13bufferingLeftEv@Base 1.2.0
 _ZNK4QGst14BufferingQuery14estimatedTotalEv@Base 1.2.0
 _ZNK4QGst14BufferingQuery4modeEv@Base 1.2.0
 _ZNK4QGst14BufferingQuery6isBusyEv@Base 1.2.0
 _ZNK4QGst14BufferingQuery7percentEv@Base 1.2.0
 _ZNK4QGst14BufferingQuery9averageInEv@Base 1.2.0
 _ZNK4QGst14BufferingQuery9rangeStopEv@Base 1.2.0
 _ZNK4QGst14DiscovererInfo10streamInfoEv@Base 1.2.0
 _ZNK4QGst14DiscovererInfo12audioStreamsEv@Base 1.2.0
 _ZNK4QGst14DiscovererInfo12videoStreamsEv@Base 1.2.0
 _ZNK4QGst14DiscovererInfo15subtitleStreamsEv@Base 1.2.0
 _ZNK4QGst14DiscovererInfo16containerStreamsEv@Base 1.2.0
 _ZNK4QGst14DiscovererInfo3uriEv@Base 1.2.0
 _ZNK4QGst14DiscovererInfo4miscEv@Base 1.2.0
 _ZNK4QGst14DiscovererInfo4tagsEv@Base 1.2.0
 _ZNK4QGst14DiscovererInfo6resultEv@Base 1.2.0
 _ZNK4QGst14DiscovererInfo7streamsEN5QGlib4TypeE@Base 1.2.0
 _ZNK4QGst14DiscovererInfo7streamsEv@Base 1.2.0
 _ZNK4QGst14DiscovererInfo8durationEv@Base 1.2.0
 _ZNK4QGst14DiscovererInfo8seekableEv@Base 1.2.0
 _ZNK4QGst14ElementFactory11elementTypeEv@Base 1.2.0
 _ZNK4QGst14ElementFactory12hasInterfaceEPKc@Base 1.2.0
 _ZNK4QGst14ElementFactory13canSrcAllCapsERKN5QGlib10RefPointerINS_4CapsEEE@Base 1.2.0
 _ZNK4QGst14ElementFactory13canSrcAnyCapsERKN5QGlib10RefPointerINS_4CapsEEE@Base 1.2.0
 _ZNK4QGst14ElementFactory14canSinkAllCapsERKN5QGlib10RefPointerINS_4CapsEEE@Base 1.2.0
 _ZNK4QGst14ElementFactory14canSinkAnyCapsERKN5QGlib10RefPointerINS_4CapsEEE@Base 1.2.0
 _ZNK4QGst14ElementFactory17padTemplatesCountEv@Base 1.2.0
 _ZNK4QGst14ElementFactory6createEPKc@Base 1.2.0
 _ZNK4QGst14ElementFactory7uriTypeEv@Base 1.2.0
 _ZNK4QGst14ElementFactory8metadataEPKc@Base 1.2.0
 _ZNK4QGst14FlushStopEvent9resetTimeEv@Base 1.2.0
 _ZNK4QGst14WarningMessage12debugMessageEv@Base 1.2.0
 _ZNK4QGst14WarningMessage5errorEv@Base 1.2.0
 _ZNK4QGst15BufferSizeEvent6formatEv@Base 1.2.0
 _ZNK4QGst15BufferSizeEvent7isAsyncEv@Base 1.2.0
 _ZNK4QGst15BufferSizeEvent7maxSizeEv@Base 1.2.0
 _ZNK4QGst15BufferSizeEvent7minSizeEv@Base 1.2.0
 _ZNK4QGst15SharedStructure4copyEv@Base 1.2.0
 _ZNK4QGst15StepDoneMessage14isFlushingStepEv@Base 1.2.0
 _ZNK4QGst15StepDoneMessage18isIntermediateStepEv@Base 1.2.0
 _ZNK4QGst15StepDoneMessage4rateEv@Base 1.2.0
 _ZNK4QGst15StepDoneMessage6amountEv@Base 1.2.0
 _ZNK4QGst15StepDoneMessage6formatEv@Base 1.2.0
 _ZNK4QGst15StepDoneMessage8durationEv@Base 1.2.0
 _ZNK4QGst15StepDoneMessage9causedEosEv@Base 1.2.0
 _ZNK4QGst16AllocationParams5alignEv@Base 1.2.0
 _ZNK4QGst16AllocationParams5flagsEv@Base 1.2.0
 _ZNK4QGst16AllocationParams6prefixEv@Base 1.2.0
 _ZNK4QGst16AllocationParams7paddingEv@Base 1.2.0
 _ZNK4QGst16AllocationParamscvPK20_GstAllocationParamsEv@Base 1.2.0
 _ZNK4QGst16AsyncDoneMessage11runningTimeEv@Base 1.2.0
 _ZNK4QGst16BufferingMessage16averageInputRateEv@Base 1.2.0
 _ZNK4QGst16BufferingMessage17averageOutputRateEv@Base 1.2.0
 _ZNK4QGst16BufferingMessage17bufferingTimeLeftEv@Base 1.2.0
 _ZNK4QGst16BufferingMessage4modeEv@Base 1.2.0
 _ZNK4QGst16BufferingMessage7percentEv@Base 1.2.0
 _ZNK4QGst16SinkMessageEvent7messageEv@Base 1.2.0
 _ZNK4QGst16StepStartMessage14isFlushingStepEv@Base 1.2.0
 _ZNK4QGst16StepStartMessage18isIntermediateStepEv@Base 1.2.0
 _ZNK4QGst16StepStartMessage4rateEv@Base 1.2.0
 _ZNK4QGst16StepStartMessage6amountEv@Base 1.2.0
 _ZNK4QGst16StepStartMessage6formatEv@Base 1.2.0
 _ZNK4QGst16StepStartMessage8isActiveEv@Base 1.2.0
 _ZNK4QGst16VideoOrientation14verticalCenterEv@Base 1.2.0
 _ZNK4QGst16VideoOrientation16horizontalCenterEv@Base 1.2.0
 _ZNK4QGst16VideoOrientation19verticalFlipEnabledEv@Base 1.2.0
 _ZNK4QGst16VideoOrientation21horizontalFlipEnabledEv@Base 1.2.0
 _ZNK4QGst18SegmentDoneMessage6formatEv@Base 1.2.0
 _ZNK4QGst18SegmentDoneMessage8positionEv@Base 1.2.0
 _ZNK4QGst19ColorBalanceChannel5labelEv@Base 1.2.0
 _ZNK4QGst19ColorBalanceChannel8maxValueEv@Base 1.2.0
 _ZNK4QGst19ColorBalanceChannel8minValueEv@Base 1.2.0
 _ZNK4QGst19DiscovererAudioInfo10maxBitrateEv@Base 1.2.0
 _ZNK4QGst19DiscovererAudioInfo10sampleRateEv@Base 1.2.0
 _ZNK4QGst19DiscovererAudioInfo5depthEv@Base 1.2.0
 _ZNK4QGst19DiscovererAudioInfo7bitrateEv@Base 1.2.0
 _ZNK4QGst19DiscovererAudioInfo8channelsEv@Base 1.2.0
 _ZNK4QGst19DiscovererAudioInfo8languageEv@Base 1.2.0
 _ZNK4QGst19DiscovererVideoInfo10maxBitrateEv@Base 1.2.0
 _ZNK4QGst19DiscovererVideoInfo12isInterlacedEv@Base 1.2.0
 _ZNK4QGst19DiscovererVideoInfo16pixelAspectRatioEv@Base 1.2.0
 _ZNK4QGst19DiscovererVideoInfo5depthEv@Base 1.2.0
 _ZNK4QGst19DiscovererVideoInfo5widthEv@Base 1.2.0
 _ZNK4QGst19DiscovererVideoInfo6heightEv@Base 1.2.0
 _ZNK4QGst19DiscovererVideoInfo7bitrateEv@Base 1.2.0
 _ZNK4QGst19DiscovererVideoInfo7isImageEv@Base 1.2.0
 _ZNK4QGst19DiscovererVideoInfo9framerateEv@Base 1.2.0
 _ZNK4QGst19RequestStateMessage5stateEv@Base 1.2.0
 _ZNK4QGst19StateChangedMessage12pendingStateEv@Base 1.2.0
 _ZNK4QGst19StateChangedMessage8newStateEv@Base 1.2.0
 _ZNK4QGst19StateChangedMessage8oldStateEv@Base 1.2.0
 _ZNK4QGst19StreamStatusMessage10statusTypeEv@Base 1.2.0
 _ZNK4QGst19StreamStatusMessage18streamStatusObjectEv@Base 1.2.0
 _ZNK4QGst19StreamStatusMessage5ownerEv@Base 1.2.0
 _ZNK4QGst20DiscovererStreamInfo14streamTypeNickEv@Base 1.2.0
 _ZNK4QGst20DiscovererStreamInfo4capsEv@Base 1.2.0
 _ZNK4QGst20DiscovererStreamInfo4miscEv@Base 1.2.0
 _ZNK4QGst20DiscovererStreamInfo4nextEv@Base 1.2.0
 _ZNK4QGst20DiscovererStreamInfo4tagsEv@Base 1.2.0
 _ZNK4QGst20DiscovererStreamInfo8previousEv@Base 1.2.0
 _ZNK4QGst22DiscovererSubtitleInfo8languageEv@Base 1.2.0
 _ZNK4QGst23DiscovererContainerInfo7streamsEv@Base 1.2.0
 _ZNK4QGst3Bin15findUnlinkedPadENS_12PadDirectionE@Base 1.2.0
 _ZNK4QGst3Bin16getElementByNameEPKcNS0_13RecursionTypeE@Base 1.2.0
 _ZNK4QGst3Bin21getElementByInterfaceEN5QGlib4TypeE@Base 1.2.0
 _ZNK4QGst3Bus18hasPendingMessagesEv@Base 1.2.0
 _ZNK4QGst3Bus4peekEv@Base 1.2.0
 _ZNK4QGst3Pad10isBlockingEv@Base 1.2.0
 _ZNK4QGst3Pad11allowedCapsEv@Base 1.2.0
 _ZNK4QGst3Pad11currentCapsEv@Base 1.2.0
 _ZNK4QGst3Pad13parentElementEv@Base 1.2.0
 _ZNK4QGst3Pad15padTemplateCapsEv@Base 1.2.0
 _ZNK4QGst3Pad4peerEv@Base 1.2.0
 _ZNK4QGst3Pad7canLinkERKN5QGlib10RefPointerIS0_EE@Base 1.2.0
 _ZNK4QGst3Pad8isActiveEv@Base 1.2.0
 _ZNK4QGst3Pad8isLinkedEv@Base 1.2.0
 _ZNK4QGst3Pad9directionEv@Base 1.2.0
 _ZNK4QGst3Pad9isBlockedEv@Base 1.2.0
 _ZNK4QGst4Caps10isSubsetOfERKN5QGlib10RefPointerIS0_EE@Base 1.2.0
 _ZNK4QGst4Caps12canIntersectERKN5QGlib10RefPointerIS0_EE@Base 1.2.0
 _ZNK4QGst4Caps15getIntersectionERKN5QGlib10RefPointerIS0_EE@Base 1.2.0
 _ZNK4QGst4Caps22isAlwaysCompatibleWithERKN5QGlib10RefPointerIS0_EE@Base 1.2.0
 _ZNK4QGst4Caps4copyEv@Base 1.2.0
 _ZNK4QGst4Caps4sizeEv@Base 1.2.0
 _ZNK4QGst4Caps5isAnyEv@Base 1.2.0
 _ZNK4QGst4Caps6equalsERKN5QGlib10RefPointerIS0_EE@Base 1.2.0
 _ZNK4QGst4Caps7copyNthEj@Base 1.2.0
 _ZNK4QGst4Caps7isEmptyEv@Base 1.2.0
 _ZNK4QGst4Caps7isFixedEv@Base 1.2.0
 _ZNK4QGst4Caps8isSimpleEv@Base 1.2.0
 _ZNK4QGst4Caps8subtractERKN5QGlib10RefPointerIS0_EE@Base 1.2.0
 _ZNK4QGst4Caps8toStringEv@Base 1.2.0
 _ZNK4QGst5Clock10resolutionEv@Base 1.2.0
 _ZNK4QGst5Clock4timeEv@Base 1.2.0
 _ZNK4QGst5Clock9clockTimeEv@Base 1.2.0
 _ZNK4QGst5Event14sequenceNumberEv@Base 1.2.0
 _ZNK4QGst5Event4copyEv@Base 1.2.0
 _ZNK4QGst5Event4typeEv@Base 1.2.0
 _ZNK4QGst5Event7hasNameEPKc@Base 1.2.0
 _ZNK4QGst5Event8typeNameEv@Base 1.2.0
 _ZNK4QGst5Event9timestampEv@Base 1.2.0
 _ZNK4QGst5Query4typeEv@Base 1.2.0
 _ZNK4QGst5Query8typeNameEv@Base 1.2.0
 _ZNK4QGst6Buffer11memoryCountEv@Base 1.2.0
 _ZNK4QGst6Buffer17decodingTimeStampEv@Base 1.2.0
 _ZNK4QGst6Buffer21presentationTimeStampEv@Base 1.2.0
 _ZNK4QGst6Buffer4copyEv@Base 1.2.0
 _ZNK4QGst6Buffer4sizeEv@Base 1.2.0
 _ZNK4QGst6Buffer5flagsEv@Base 1.2.0
 _ZNK4QGst6Buffer6offsetEv@Base 1.2.0
 _ZNK4QGst6Buffer8durationEv@Base 1.2.0
 _ZNK4QGst6Buffer9getMemoryEj@Base 1.2.0
 _ZNK4QGst6Buffer9offsetEndEv@Base 1.2.0
 _ZNK4QGst6Memory4sizeEv@Base 1.2.0
 _ZNK4QGst6Memory6isTypeEPKc@Base 1.2.0
 _ZNK4QGst6Memory6offsetEv@Base 1.2.0
 _ZNK4QGst6Memory7maxSizeEv@Base 1.2.0
 _ZNK4QGst6Memory9allocatorEv@Base 1.2.0
 _ZNK4QGst6Object10pathStringEv@Base 1.2.0
 _ZNK4QGst6Object12isAncestorOfERKN5QGlib10RefPointerIS0_EE@Base 1.2.0
 _ZNK4QGst6Object4nameEv@Base 1.2.0
 _ZNK4QGst6Object6parentEv@Base 1.2.0
 _ZNK4QGst6Sample4capsEv@Base 1.2.0
 _ZNK4QGst6Sample4infoEv@Base 1.2.0
 _ZNK4QGst6Sample6bufferEv@Base 1.2.0
 _ZNK4QGst6Sample7segmentEv@Base 1.2.0
 _ZNK4QGst7Element12currentStateEv@Base 1.2.0
 _ZNK4QGst7Element12pendingStateEv@Base 1.2.0
 _ZNK4QGst7Element13stateIsLockedEv@Base 1.2.0
 _ZNK4QGst7Element5clockEv@Base 1.2.0
 _ZNK4QGst7Element8getStateEPNS_5StateES2_NS_9ClockTimeE@Base 1.2.0
 _ZNK4QGst7MapInfo4dataEv@Base 1.2.0
 _ZNK4QGst7MapInfo4sizeEv@Base 1.2.0
 _ZNK4QGst7MapInfo5flagsEv@Base 1.2.0
 _ZNK4QGst7MapInfo7maxSizeEv@Base 1.2.0
 _ZNK4QGst7Message14sequenceNumberEv@Base 1.2.0
 _ZNK4QGst7Message4typeEv@Base 1.2.0
 _ZNK4QGst7Message6sourceEv@Base 1.2.0
 _ZNK4QGst7Message8typeNameEv@Base 1.2.0
 _ZNK4QGst7Message9timestampEv@Base 1.2.0
 _ZNK4QGst7Segment11appliedRateEv@Base 1.2.0
 _ZNK4QGst7Segment4baseEv@Base 1.2.0
 _ZNK4QGst7Segment4rateEv@Base 1.2.0
 _ZNK4QGst7Segment4stopEv@Base 1.2.0
 _ZNK4QGst7Segment4timeEv@Base 1.2.0
 _ZNK4QGst7Segment5flagsEv@Base 1.2.0
 _ZNK4QGst7Segment5startEv@Base 1.2.0
 _ZNK4QGst7Segment6formatEv@Base 1.2.0
 _ZNK4QGst7Segment6offsetEv@Base 1.2.0
 _ZNK4QGst7Segment7isValidEv@Base 1.2.0
 _ZNK4QGst7Segment8durationEv@Base 1.2.0
 _ZNK4QGst7Segment8positionEv@Base 1.2.0
 _ZNK4QGst7SegmentcvPK11_GstSegmentEv@Base 1.2.0
 _ZNK4QGst7TagList10attachmentEi@Base 1.2.0
 _ZNK4QGst7TagList10audioCodecEv@Base 1.2.0
 _ZNK4QGst7TagList10genreCountEv@Base 1.2.0
 _ZNK4QGst7TagList10imageCountEv@Base 1.2.0
 _ZNK4QGst7TagList10licenseUriEv@Base 1.2.0
 _ZNK4QGst7TagList10titleCountEv@Base 1.2.0
 _ZNK4QGst7TagList10trackCountEv@Base 1.2.0
 _ZNK4QGst7TagList10userRatingEv@Base 1.2.0
 _ZNK4QGst7TagList10videoCodecEv@Base 1.2.0
 _ZNK4QGst7TagList11artistCountEv@Base 1.2.0
 _ZNK4QGst7TagList11descriptionEi@Base 1.2.0
 _ZNK4QGst7TagList11deviceModelEv@Base 1.2.0
 _ZNK4QGst7TagList11lyricsCountEv@Base 1.2.0
 _ZNK4QGst7TagList11trackNumberEv@Base 1.2.0
 _ZNK4QGst7TagList12commentCountEv@Base 1.2.0
 _ZNK4QGst7TagList12contactCountEv@Base 1.2.0
 _ZNK4QGst7TagList12copyrightUriEv@Base 1.2.0
 _ZNK4QGst7TagList12languageCodeEv@Base 1.2.0
 _ZNK4QGst7TagList12organizationEi@Base 1.2.0
 _ZNK4QGst7TagList12previewImageEv@Base 1.2.0
 _ZNK4QGst7TagList12showSortNameEv@Base 1.2.0
 _ZNK4QGst7TagList13composerCountEv@Base 1.2.0
 _ZNK4QGst7TagList13homepageCountEv@Base 1.2.0
 _ZNK4QGst7TagList13keywordsCountEv@Base 1.2.0
 _ZNK4QGst7TagList13locationCountEv@Base 1.2.0
 _ZNK4QGst7TagList13showNameCountEv@Base 1.2.0
 _ZNK4QGst7TagList13subtitleCodecEv@Base 1.2.0
 _ZNK4QGst7TagList13tagValueCountEPKc@Base 1.2.0
 _ZNK4QGst7TagList13titleSortNameEv@Base 1.2.0
 _ZNK4QGst7TagList14artistSortNameEv@Base 1.2.0
 _ZNK4QGst7TagList14beatsPerMinuteEv@Base 1.2.0
 _ZNK4QGst7TagList14encoderVersionEv@Base 1.2.0
 _ZNK4QGst7TagList14maximumBitrateEv@Base 1.2.0
 _ZNK4QGst7TagList14minimumBitrateEv@Base 1.2.0
 _ZNK4QGst7TagList14nominalBitrateEv@Base 1.2.0
 _ZNK4QGst7TagList14performerCountEv@Base 1.2.0
 _ZNK4QGst7TagList14referenceLevelEv@Base 1.2.0
 _ZNK4QGst7TagList15applicationDataEv@Base 1.2.0
 _ZNK4QGst7TagList15applicationNameEv@Base 1.2.0
 _ZNK4QGst7TagList15attachmentCountEv@Base 1.2.0
 _ZNK4QGst7TagList15containerFormatEv@Base 1.2.0
 _ZNK4QGst7TagList15extendedCommentEi@Base 1.2.0
 _ZNK4QGst7TagList15geoLocationCityEv@Base 1.2.0
 _ZNK4QGst7TagList15geoLocationNameEv@Base 1.2.0
 _ZNK4QGst7TagList16albumVolumeCountEv@Base 1.2.0
 _ZNK4QGst7TagList16composerSortNameEv@Base 1.2.0
 _ZNK4QGst7TagList16descriptionCountEv@Base 1.2.0
 _ZNK4QGst7TagList16imageOrientationEv@Base 1.2.0
 _ZNK4QGst7TagList16showSeasonNumberEv@Base 1.2.0
 _ZNK4QGst7TagList17albumVolumeNumberEv@Base 1.2.0
 _ZNK4QGst7TagList17organizationCountEv@Base 1.2.0
 _ZNK4QGst7TagList17showEpisodeNumberEv@Base 1.2.0
 _ZNK4QGst7TagList18deviceManufacturerEv@Base 1.2.0
 _ZNK4QGst7TagList18geoLocationCountryEv@Base 1.2.0
 _ZNK4QGst7TagList19geoLocationLatitudeEv@Base 1.2.0
 _ZNK4QGst7TagList20extendedCommentCountEv@Base 1.2.0
 _ZNK4QGst7TagList20geoLocationElevationEv@Base 1.2.0
 _ZNK4QGst7TagList20geoLocationLongitudeEv@Base 1.2.0
 _ZNK4QGst7TagList22geoLocationSublocationEv@Base 1.2.0
 _ZNK4QGst7TagList24geoLocationMovementSpeedEv@Base 1.2.0
 _ZNK4QGst7TagList26geoLocationHorizontalErrorEv@Base 1.2.0
 _ZNK4QGst7TagList27geoLocationCaptureDirectionEv@Base 1.2.0
 _ZNK4QGst7TagList28geoLocationMovementDirectionEv@Base 1.2.0
 _ZNK4QGst7TagList4dateEv@Base 1.2.0
 _ZNK4QGst7TagList4isrcEv@Base 1.2.0
 _ZNK4QGst7TagList5codecEv@Base 1.2.0
 _ZNK4QGst7TagList5genreEi@Base 1.2.0
 _ZNK4QGst7TagList5imageEi@Base 1.2.0
 _ZNK4QGst7TagList5titleEi@Base 1.2.0
 _ZNK4QGst7TagList6artistEi@Base 1.2.0
 _ZNK4QGst7TagList6lyricsEi@Base 1.2.0
 _ZNK4QGst7TagList6serialEv@Base 1.2.0
 _ZNK4QGst7TagList7bitrateEv@Base 1.2.0
 _ZNK4QGst7TagList7commentEi@Base 1.2.0
 _ZNK4QGst7TagList7contactEi@Base 1.2.0
 _ZNK4QGst7TagList7encoderEv@Base 1.2.0
 _ZNK4QGst7TagList7isEmptyEv@Base 1.2.0
 _ZNK4QGst7TagList7licenseEv@Base 1.2.0
 _ZNK4QGst7TagList7versionEv@Base 1.2.0
 _ZNK4QGst7TagList8composerEi@Base 1.2.0
 _ZNK4QGst7TagList8dateTimeEv@Base 1.2.0
 _ZNK4QGst7TagList8durationEv@Base 1.2.0
 _ZNK4QGst7TagList8groupingEv@Base 1.2.0
 _ZNK4QGst7TagList8homepageEi@Base 1.2.0
 _ZNK4QGst7TagList8keywordsEi@Base 1.2.0
 _ZNK4QGst7TagList8locationEi@Base 1.2.0
 _ZNK4QGst7TagList8showNameEi@Base 1.2.0
 _ZNK4QGst7TagList8tagValueEPKci@Base 1.2.0
 _ZNK4QGst7TagList9albumGainEv@Base 1.2.0
 _ZNK4QGst7TagList9albumPeakEv@Base 1.2.0
 _ZNK4QGst7TagList9copyrightEv@Base 1.2.0
 _ZNK4QGst7TagList9performerEi@Base 1.2.0
 _ZNK4QGst7TagList9trackGainEv@Base 1.2.0
 _ZNK4QGst7TagList9trackPeakEv@Base 1.2.0
 _ZNK4QGst7TagListcvPK11_GstTagListEv@Base 1.2.0
 _ZNK4QGst8GhostPad6targetEv@Base 1.2.0
 _ZNK4QGst8Pipeline3busEv@Base 1.2.0
 _ZNK4QGst8Pipeline5clockEv@Base 1.2.0
 _ZNK4QGst8QosEvent10proportionEv@Base 1.2.0
 _ZNK4QGst8QosEvent4diffEv@Base 1.2.0
 _ZNK4QGst8QosEvent7qosTypeEv@Base 1.2.0
 _ZNK4QGst8QosEvent9timestampEv@Base 1.2.0
 _ZNK4QGst8TagEvent7taglistEv@Base 1.2.0
 _ZNK4QGst8UriQuery3uriEv@Base 1.2.0
 _ZNK4QGst9CapsEvent4capsEv@Base 1.2.0
 _ZNK4QGst9ClockTime6toTimeEv@Base 1.2.0
 _ZNK4QGst9SeekEvent4rateEv@Base 1.2.0
 _ZNK4QGst9SeekEvent4stopEv@Base 1.2.0
 _ZNK4QGst9SeekEvent5flagsEv@Base 1.2.0
 _ZNK4QGst9SeekEvent5startEv@Base 1.2.0
 _ZNK4QGst9SeekEvent6formatEv@Base 1.2.0
 _ZNK4QGst9SeekEvent8stopTypeEv@Base 1.2.0
 _ZNK4QGst9SeekEvent9startTypeEv@Base 1.2.0
 _ZNK4QGst9StepEvent12intermediateEv@Base 1.2.0
 _ZNK4QGst9StepEvent4rateEv@Base 1.2.0
 _ZNK4QGst9StepEvent5flushEv@Base 1.2.0
 _ZNK4QGst9StepEvent6amountEv@Base 1.2.0
 _ZNK4QGst9StepEvent6formatEv@Base 1.2.0
 _ZNK4QGst9Structure13hasFieldTypedEPKcN5QGlib4TypeE@Base 1.2.0
 _ZNK4QGst9Structure14numberOfFieldsEv@Base 1.2.0
 _ZNK4QGst9Structure4nameEv@Base 1.2.0
 _ZNK4QGst9Structure5valueEPKc@Base 1.2.0
 _ZNK4QGst9Structure7isValidEv@Base 1.2.0
 _ZNK4QGst9Structure8hasFieldEPKc@Base 1.2.0
 _ZNK4QGst9Structure8toStringEv@Base 1.2.0
 _ZNK4QGst9Structure9fieldNameEj@Base 1.2.0
 _ZNK4QGst9Structure9fieldTypeEPKc@Base 1.2.0
 _ZNK4QGst9StructurecvPK13_GstStructureEv@Base 1.2.0
 _ZTI11QSharedData@Base 1.2.0
 _ZTIN4QGst10BufferListE@Base 1.2.0
 _ZTIN4QGst10ChildProxyE@Base 1.2.0
 _ZTIN4QGst10DiscovererE@Base 1.2.0
 _ZTIN4QGst10EosMessageE@Base 1.2.0
 _ZTIN4QGst10MiniObjectE@Base 1.2.0
 _ZTIN4QGst10QosMessageE@Base 1.2.0
 _ZTIN4QGst10TagMessageE@Base 1.2.0
 _ZTIN4QGst10UriHandlerE@Base 1.2.0
 _ZTIN4QGst11InfoMessageE@Base 1.2.0
 _ZTIN4QGst12ColorBalanceE@Base 1.2.0
 _ZTIN4QGst12ConvertQueryE@Base 1.2.0
 _ZTIN4QGst12ErrorMessageE@Base 1.2.0
 _ZTIN4QGst12FormatsQueryE@Base 1.2.0
 _ZTIN4QGst12LatencyEventE@Base 1.2.0
 _ZTIN4QGst12LatencyQueryE@Base 1.2.0
 _ZTIN4QGst12SeekingQueryE@Base 1.2.0
 _ZTIN4QGst12SegmentEventE@Base 1.2.0
 _ZTIN4QGst12SegmentQueryE@Base 1.2.0
 _ZTIN4QGst12StreamVolumeE@Base 1.2.0
 _ZTIN4QGst12VideoOverlayE@Base 1.2.0
 _ZTIN4QGst13DurationQueryE@Base 1.2.0
 _ZTIN4QGst13PluginFeatureE@Base 1.2.0
 _ZTIN4QGst13PositionQueryE@Base 1.2.0
 _ZTIN4QGst14BufferingQueryE@Base 1.2.0
 _ZTIN4QGst14DiscovererInfoE@Base 1.2.0
 _ZTIN4QGst14ElementFactoryE@Base 1.2.0
 _ZTIN4QGst14ElementMessageE@Base 1.2.0
 _ZTIN4QGst14FlushStopEventE@Base 1.2.0
 _ZTIN4QGst14LatencyMessageE@Base 1.2.0
 _ZTIN4QGst14WarningMessageE@Base 1.2.0
 _ZTIN4QGst15BufferSizeEventE@Base 1.2.0
 _ZTIN4QGst15FlushStartEventE@Base 1.2.0
 _ZTIN4QGst15NavigationEventE@Base 1.2.0
 _ZTIN4QGst15SharedStructureE@Base 1.2.0
 _ZTIN4QGst15StepDoneMessageE@Base 1.2.0
 _ZTIN4QGst16AllocationParamsE@Base 1.2.0
 _ZTIN4QGst16AsyncDoneMessageE@Base 1.2.0
 _ZTIN4QGst16BufferingMessageE@Base 1.2.0
 _ZTIN4QGst16SinkMessageEventE@Base 1.2.0
 _ZTIN4QGst16StepStartMessageE@Base 1.2.0
 _ZTIN4QGst16VideoOrientationE@Base 1.2.0
 _ZTIN4QGst18ApplicationMessageE@Base 1.2.0
 _ZTIN4QGst18SegmentDoneMessageE@Base 1.2.0
 _ZTIN4QGst19ColorBalanceChannelE@Base 1.2.0
 _ZTIN4QGst19DiscovererAudioInfoE@Base 1.2.0
 _ZTIN4QGst19DiscovererVideoInfoE@Base 1.2.0
 _ZTIN4QGst19RequestStateMessageE@Base 1.2.0
 _ZTIN4QGst19StateChangedMessageE@Base 1.2.0
 _ZTIN4QGst19StreamStatusMessageE@Base 1.2.0
 _ZTIN4QGst20DiscovererStreamInfoE@Base 1.2.0
 _ZTIN4QGst22DiscovererSubtitleInfoE@Base 1.2.0
 _ZTIN4QGst22DurationChangedMessageE@Base 1.2.0
 _ZTIN4QGst23DiscovererContainerInfoE@Base 1.2.0
 _ZTIN4QGst3BinE@Base 1.2.0
 _ZTIN4QGst3BusE@Base 1.2.0
 _ZTIN4QGst3PadE@Base 1.2.0
 _ZTIN4QGst4CapsE@Base 1.2.0
 _ZTIN4QGst5ClockE@Base 1.2.0
 _ZTIN4QGst5EventE@Base 1.2.0
 _ZTIN4QGst5QueryE@Base 1.2.0
 _ZTIN4QGst6BufferE@Base 1.2.0
 _ZTIN4QGst6MemoryE@Base 1.2.0
 _ZTIN4QGst6ObjectE@Base 1.2.0
 _ZTIN4QGst6SampleE@Base 1.2.0
 _ZTIN4QGst7ElementE@Base 1.2.0
 _ZTIN4QGst7MapInfoE@Base 1.2.0
 _ZTIN4QGst7MessageE@Base 1.2.0
 _ZTIN4QGst7SegmentE@Base 1.2.0
 _ZTIN4QGst7TagListE@Base 1.2.0
 _ZTIN4QGst8EosEventE@Base 1.2.0
 _ZTIN4QGst8GhostPadE@Base 1.2.0
 _ZTIN4QGst8PipelineE@Base 1.2.0
 _ZTIN4QGst8QosEventE@Base 1.2.0
 _ZTIN4QGst8TagEventE@Base 1.2.0
 _ZTIN4QGst8UriQueryE@Base 1.2.0
 _ZTIN4QGst9AllocatorE@Base 1.2.0
 _ZTIN4QGst9CapsEventE@Base 1.2.0
 _ZTIN4QGst9SeekEventE@Base 1.2.0
 _ZTIN4QGst9StepEventE@Base 1.2.0
 _ZTIN4QGst9StructureE@Base 1.2.0
 _ZTIN5QGlib16RefCountedObjectE@Base 1.2.0
 _ZTIN5QGlib6ObjectE@Base 1.2.0
 _ZTIN5QGlib9InterfaceE@Base 1.2.0
 _ZTS11QSharedData@Base 1.2.0
 _ZTSN4QGst10BufferListE@Base 1.2.0
 _ZTSN4QGst10ChildProxyE@Base 1.2.0
 _ZTSN4QGst10DiscovererE@Base 1.2.0
 _ZTSN4QGst10EosMessageE@Base 1.2.0
 _ZTSN4QGst10MiniObjectE@Base 1.2.0
 _ZTSN4QGst10QosMessageE@Base 1.2.0
 _ZTSN4QGst10TagMessageE@Base 1.2.0
 _ZTSN4QGst10UriHandlerE@Base 1.2.0
 _ZTSN4QGst11InfoMessageE@Base 1.2.0
 _ZTSN4QGst12ColorBalanceE@Base 1.2.0
 _ZTSN4QGst12ConvertQueryE@Base 1.2.0
 _ZTSN4QGst12ErrorMessageE@Base 1.2.0
 _ZTSN4QGst12FormatsQueryE@Base 1.2.0
 _ZTSN4QGst12LatencyEventE@Base 1.2.0
 _ZTSN4QGst12LatencyQueryE@Base 1.2.0
 _ZTSN4QGst12SeekingQueryE@Base 1.2.0
 _ZTSN4QGst12SegmentEventE@Base 1.2.0
 _ZTSN4QGst12SegmentQueryE@Base 1.2.0
 _ZTSN4QGst12StreamVolumeE@Base 1.2.0
 _ZTSN4QGst12VideoOverlayE@Base 1.2.0
 _ZTSN4QGst13DurationQueryE@Base 1.2.0
 _ZTSN4QGst13PluginFeatureE@Base 1.2.0
 _ZTSN4QGst13PositionQueryE@Base 1.2.0
 _ZTSN4QGst14BufferingQueryE@Base 1.2.0
 _ZTSN4QGst14DiscovererInfoE@Base 1.2.0
 _ZTSN4QGst14ElementFactoryE@Base 1.2.0
 _ZTSN4QGst14ElementMessageE@Base 1.2.0
 _ZTSN4QGst14FlushStopEventE@Base 1.2.0
 _ZTSN4QGst14LatencyMessageE@Base 1.2.0
 _ZTSN4QGst14WarningMessageE@Base 1.2.0
 _ZTSN4QGst15BufferSizeEventE@Base 1.2.0
 _ZTSN4QGst15FlushStartEventE@Base 1.2.0
 _ZTSN4QGst15NavigationEventE@Base 1.2.0
 _ZTSN4QGst15SharedStructureE@Base 1.2.0
 _ZTSN4QGst15StepDoneMessageE@Base 1.2.0
 _ZTSN4QGst16AllocationParamsE@Base 1.2.0
 _ZTSN4QGst16AsyncDoneMessageE@Base 1.2.0
 _ZTSN4QGst16BufferingMessageE@Base 1.2.0
 _ZTSN4QGst16SinkMessageEventE@Base 1.2.0
 _ZTSN4QGst16StepStartMessageE@Base 1.2.0
 _ZTSN4QGst16VideoOrientationE@Base 1.2.0
 _ZTSN4QGst18ApplicationMessageE@Base 1.2.0
 _ZTSN4QGst18SegmentDoneMessageE@Base 1.2.0
 _ZTSN4QGst19ColorBalanceChannelE@Base 1.2.0
 _ZTSN4QGst19DiscovererAudioInfoE@Base 1.2.0
 _ZTSN4QGst19DiscovererVideoInfoE@Base 1.2.0
 _ZTSN4QGst19RequestStateMessageE@Base 1.2.0
 _ZTSN4QGst19StateChangedMessageE@Base 1.2.0
 _ZTSN4QGst19StreamStatusMessageE@Base 1.2.0
 _ZTSN4QGst20DiscovererStreamInfoE@Base 1.2.0
 _ZTSN4QGst22DiscovererSubtitleInfoE@Base 1.2.0
 _ZTSN4QGst22DurationChangedMessageE@Base 1.2.0
 _ZTSN4QGst23DiscovererContainerInfoE@Base 1.2.0
 _ZTSN4QGst3BinE@Base 1.2.0
 _ZTSN4QGst3BusE@Base 1.2.0
 _ZTSN4QGst3PadE@Base 1.2.0
 _ZTSN4QGst4CapsE@Base 1.2.0
 _ZTSN4QGst5ClockE@Base 1.2.0
 _ZTSN4QGst5EventE@Base 1.2.0
 _ZTSN4QGst5QueryE@Base 1.2.0
 _ZTSN4QGst6BufferE@Base 1.2.0
 _ZTSN4QGst6MemoryE@Base 1.2.0
 _ZTSN4QGst6ObjectE@Base 1.2.0
 _ZTSN4QGst6SampleE@Base 1.2.0
 _ZTSN4QGst7ElementE@Base 1.2.0
 _ZTSN4QGst7MapInfoE@Base 1.2.0
 _ZTSN4QGst7MessageE@Base 1.2.0
 _ZTSN4QGst7SegmentE@Base 1.2.0
 _ZTSN4QGst7TagListE@Base 1.2.0
 _ZTSN4QGst8EosEventE@Base 1.2.0
 _ZTSN4QGst8GhostPadE@Base 1.2.0
 _ZTSN4QGst8PipelineE@Base 1.2.0
 _ZTSN4QGst8QosEventE@Base 1.2.0
 _ZTSN4QGst8TagEventE@Base 1.2.0
 _ZTSN4QGst8UriQueryE@Base 1.2.0
 _ZTSN4QGst9AllocatorE@Base 1.2.0
 _ZTSN4QGst9CapsEventE@Base 1.2.0
 _ZTSN4QGst9SeekEventE@Base 1.2.0
 _ZTSN4QGst9StepEventE@Base 1.2.0
 _ZTSN4QGst9StructureE@Base 1.2.0
 _ZTSN5QGlib16RefCountedObjectE@Base 1.2.0
 _ZTSN5QGlib6ObjectE@Base 1.2.0
 _ZTSN5QGlib9InterfaceE@Base 1.2.0
 _ZTTN4QGst10ChildProxyE@Base 1.2.0
 _ZTTN4QGst10DiscovererE@Base 1.2.0
 _ZTTN4QGst10UriHandlerE@Base 1.2.0
 _ZTTN4QGst12ColorBalanceE@Base 1.2.0
 _ZTTN4QGst12StreamVolumeE@Base 1.2.0
 _ZTTN4QGst12VideoOverlayE@Base 1.2.0
 _ZTTN4QGst13PluginFeatureE@Base 1.2.0
 _ZTTN4QGst14DiscovererInfoE@Base 1.2.0
 _ZTTN4QGst14ElementFactoryE@Base 1.2.0
 _ZTTN4QGst16VideoOrientationE@Base 1.2.0
 _ZTTN4QGst19ColorBalanceChannelE@Base 1.2.0
 _ZTTN4QGst19DiscovererAudioInfoE@Base 1.2.0
 _ZTTN4QGst19DiscovererVideoInfoE@Base 1.2.0
 _ZTTN4QGst20DiscovererStreamInfoE@Base 1.2.0
 _ZTTN4QGst22DiscovererSubtitleInfoE@Base 1.2.0
 _ZTTN4QGst23DiscovererContainerInfoE@Base 1.2.0
 _ZTTN4QGst3BinE@Base 1.2.0
 _ZTTN4QGst3BusE@Base 1.2.0
 _ZTTN4QGst3PadE@Base 1.2.0
 _ZTTN4QGst5ClockE@Base 1.2.0
 _ZTTN4QGst6ObjectE@Base 1.2.0
 _ZTTN4QGst7ElementE@Base 1.2.0
 _ZTTN4QGst8GhostPadE@Base 1.2.0
 _ZTTN4QGst8PipelineE@Base 1.2.0
 _ZTTN4QGst9AllocatorE@Base 1.2.0
 _ZTVN4QGst10BufferListE@Base 1.2.0
 _ZTVN4QGst10ChildProxyE@Base 1.2.0
 _ZTVN4QGst10DiscovererE@Base 1.2.0
 _ZTVN4QGst10EosMessageE@Base 1.2.0
 _ZTVN4QGst10MiniObjectE@Base 1.2.0
 _ZTVN4QGst10QosMessageE@Base 1.2.0
 _ZTVN4QGst10TagMessageE@Base 1.2.0
 _ZTVN4QGst10UriHandlerE@Base 1.2.0
 _ZTVN4QGst11InfoMessageE@Base 1.2.0
 _ZTVN4QGst12ColorBalanceE@Base 1.2.0
 _ZTVN4QGst12ConvertQueryE@Base 1.2.0
 _ZTVN4QGst12ErrorMessageE@Base 1.2.0
 _ZTVN4QGst12FormatsQueryE@Base 1.2.0
 _ZTVN4QGst12LatencyEventE@Base 1.2.0
 _ZTVN4QGst12LatencyQueryE@Base 1.2.0
 _ZTVN4QGst12SeekingQueryE@Base 1.2.0
 _ZTVN4QGst12SegmentEventE@Base 1.2.0
 _ZTVN4QGst12SegmentQueryE@Base 1.2.0
 _ZTVN4QGst12StreamVolumeE@Base 1.2.0
 _ZTVN4QGst12VideoOverlayE@Base 1.2.0
 _ZTVN4QGst13DurationQueryE@Base 1.2.0
 _ZTVN4QGst13PluginFeatureE@Base 1.2.0
 _ZTVN4QGst13PositionQueryE@Base 1.2.0
 _ZTVN4QGst14BufferingQueryE@Base 1.2.0
 _ZTVN4QGst14DiscovererInfoE@Base 1.2.0
 _ZTVN4QGst14ElementFactoryE@Base 1.2.0
 _ZTVN4QGst14ElementMessageE@Base 1.2.0
 _ZTVN4QGst14FlushStopEventE@Base 1.2.0
 _ZTVN4QGst14LatencyMessageE@Base 1.2.0
 _ZTVN4QGst14WarningMessageE@Base 1.2.0
 _ZTVN4QGst15BufferSizeEventE@Base 1.2.0
 _ZTVN4QGst15FlushStartEventE@Base 1.2.0
 _ZTVN4QGst15NavigationEventE@Base 1.2.0
 _ZTVN4QGst15SharedStructureE@Base 1.2.0
 _ZTVN4QGst15StepDoneMessageE@Base 1.2.0
 _ZTVN4QGst16AllocationParamsE@Base 1.2.0
 _ZTVN4QGst16AsyncDoneMessageE@Base 1.2.0
 _ZTVN4QGst16BufferingMessageE@Base 1.2.0
 _ZTVN4QGst16SinkMessageEventE@Base 1.2.0
 _ZTVN4QGst16StepStartMessageE@Base 1.2.0
 _ZTVN4QGst16VideoOrientationE@Base 1.2.0
 _ZTVN4QGst18ApplicationMessageE@Base 1.2.0
 _ZTVN4QGst18SegmentDoneMessageE@Base 1.2.0
 _ZTVN4QGst19ColorBalanceChannelE@Base 1.2.0
 _ZTVN4QGst19DiscovererAudioInfoE@Base 1.2.0
 _ZTVN4QGst19DiscovererVideoInfoE@Base 1.2.0
 _ZTVN4QGst19RequestStateMessageE@Base 1.2.0
 _ZTVN4QGst19StateChangedMessageE@Base 1.2.0
 _ZTVN4QGst19StreamStatusMessageE@Base 1.2.0
 _ZTVN4QGst20DiscovererStreamInfoE@Base 1.2.0
 _ZTVN4QGst22DiscovererSubtitleInfoE@Base 1.2.0
 _ZTVN4QGst22DurationChangedMessageE@Base 1.2.0
 _ZTVN4QGst23DiscovererContainerInfoE@Base 1.2.0
 _ZTVN4QGst3BinE@Base 1.2.0
 _ZTVN4QGst3BusE@Base 1.2.0
 _ZTVN4QGst3PadE@Base 1.2.0
 _ZTVN4QGst4CapsE@Base 1.2.0
 _ZTVN4QGst5ClockE@Base 1.2.0
 _ZTVN4QGst5EventE@Base 1.2.0
 _ZTVN4QGst5QueryE@Base 1.2.0
 _ZTVN4QGst6BufferE@Base 1.2.0
 _ZTVN4QGst6MemoryE@Base 1.2.0
 _ZTVN4QGst6ObjectE@Base 1.2.0
 _ZTVN4QGst6SampleE@Base 1.2.0
 _ZTVN4QGst7ElementE@Base 1.2.0
 _ZTVN4QGst7MapInfoE@Base 1.2.0
 _ZTVN4QGst7MessageE@Base 1.2.0
 _ZTVN4QGst7SegmentE@Base 1.2.0
 _ZTVN4QGst7TagListE@Base 1.2.0
 _ZTVN4QGst8EosEventE@Base 1.2.0
 _ZTVN4QGst8GhostPadE@Base 1.2.0
 _ZTVN4QGst8PipelineE@Base 1.2.0
 _ZTVN4QGst8QosEventE@Base 1.2.0
 _ZTVN4QGst8TagEventE@Base 1.2.0
 _ZTVN4QGst8UriQueryE@Base 1.2.0
 _ZTVN4QGst9AllocatorE@Base 1.2.0
 _ZTVN4QGst9CapsEventE@Base 1.2.0
 _ZTVN4QGst9SeekEventE@Base 1.2.0
 _ZTVN4QGst9StepEventE@Base 1.2.0
 _ZTVN4QGst9StructureE@Base 1.2.0
 _ZTVN5QGlib16RefCountedObjectE@Base 1.2.0
 (c++)"virtual thunk to QGst::Object::ref(bool)@Base" 1.2.0
 (c++)"virtual thunk to QGst::Object::unref()@Base" 1.2.0
